(igravithaum.game.universe
universe
p0
(dp1
S'attractors'
p2
(lp3
sS'grid'
p4
(igravithaum.game.forcefield
forcefield
p5
(dp6
S'universe'
p7
g0
sS'array'
p8
carray
array
p9
(S'i'
p10
(lp11
I-2000
aI-700
aI-2000
aI-690
aI-2000
aI-680
aI-2000
aI-670
aI-2000
aI-660
aI-2000
aI-650
aI-2000
aI-640
aI-2000
aI-630
aI-2000
aI-620
aI-2000
aI-610
aI-2000
aI-600
aI-2000
aI-590
aI-2000
aI-580
aI-2000
aI-570
aI-2000
aI-560
aI-2000
aI-550
aI-2000
aI-540
aI-2000
aI-530
aI-2000
aI-520
aI-2000
aI-510
aI-2000
aI-500
aI-2000
aI-490
aI-2000
aI-480
aI-2000
aI-470
aI-2000
aI-460
aI-2000
aI-450
aI-2000
aI-440
aI-2000
aI-430
aI-2000
aI-420
aI-2000
aI-410
aI-2000
aI-400
aI-2000
aI-390
aI-2000
aI-380
aI-2000
aI-370
aI-2000
aI-360
aI-2000
aI-350
aI-2000
aI-340
aI-2000
aI-330
aI-2000
aI-320
aI-2000
aI-310
aI-2000
aI-300
aI-2000
aI-290
aI-2000
aI-280
aI-2000
aI-270
aI-2000
aI-260
aI-2000
aI-250
aI-2000
aI-240
aI-2000
aI-230
aI-2000
aI-220
aI-2000
aI-210
aI-2000
aI-200
aI-2000
aI-190
aI-2000
aI-180
aI-2000
aI-170
aI-2000
aI-160
aI-2000
aI-150
aI-2000
aI-140
aI-2000
aI-130
aI-2000
aI-120
aI-2000
aI-110
aI-2000
aI-100
aI-2000
aI-90
aI-2000
aI-80
aI-2000
aI-70
aI-2000
aI-60
aI-2000
aI-50
aI-2000
aI-40
aI-2000
aI-30
aI-2000
aI-20
aI-2000
aI-10
aI-2000
aI0
aI-2000
aI10
aI-2000
aI20
aI-2000
aI30
aI-2000
aI40
aI-2000
aI50
aI-2000
aI60
aI-2000
aI70
aI-2000
aI80
aI-2000
aI90
aI-2000
aI100
aI-2000
aI110
aI-2000
aI120
aI-2000
aI130
aI-2000
aI140
aI-2000
aI150
aI-2000
aI160
aI-2000
aI170
aI-2000
aI180
aI-2000
aI190
aI-2000
aI200
aI-2000
aI210
aI-2000
aI220
aI-2000
aI230
aI-2000
aI240
aI-2000
aI250
aI-2000
aI260
aI-2000
aI270
aI-2000
aI280
aI-2000
aI290
aI-2000
aI300
aI-2000
aI310
aI-2000
aI320
aI-2000
aI330
aI-2000
aI340
aI-2000
aI350
aI-2000
aI360
aI-2000
aI370
aI-2000
aI380
aI-2000
aI390
aI-2000
aI400
aI-2000
aI410
aI-2000
aI420
aI-2000
aI430
aI-2000
aI440
aI-2000
aI450
aI-2000
aI460
aI-2000
aI470
aI-2000
aI480
aI-2000
aI490
aI-2000
aI500
aI-2000
aI510
aI-2000
aI520
aI-2000
aI530
aI-2000
aI540
aI-2000
aI550
aI-2000
aI560
aI-2000
aI570
aI-2000
aI580
aI-2000
aI590
aI-2000
aI600
aI-2000
aI610
aI-2000
aI620
aI-2000
aI630
aI-2000
aI640
aI-2000
aI650
aI-2000
aI660
aI-2000
aI670
aI-2000
aI680
aI-2000
aI690
aI-1900
aI-700
aI-1900
aI-690
aI-1900
aI-680
aI-1900
aI-670
aI-1900
aI-660
aI-1900
aI-650
aI-1900
aI-640
aI-1900
aI-630
aI-1900
aI-620
aI-1900
aI-610
aI-1900
aI-600
aI-1900
aI-590
aI-1900
aI-580
aI-1900
aI-570
aI-1900
aI-560
aI-1900
aI-550
aI-1900
aI-540
aI-1900
aI-530
aI-1900
aI-520
aI-1900
aI-510
aI-1900
aI-500
aI-1900
aI-490
aI-1900
aI-480
aI-1900
aI-470
aI-1900
aI-460
aI-1900
aI-450
aI-1900
aI-440
aI-1900
aI-430
aI-1900
aI-420
aI-1900
aI-410
aI-1900
aI-400
aI-1900
aI-390
aI-1900
aI-380
aI-1900
aI-370
aI-1900
aI-360
aI-1900
aI-350
aI-1900
aI-340
aI-1900
aI-330
aI-1900
aI-320
aI-1900
aI-310
aI-1900
aI-300
aI-1900
aI-290
aI-1900
aI-280
aI-1900
aI-270
aI-1900
aI-260
aI-1900
aI-250
aI-1900
aI-240
aI-1900
aI-230
aI-1900
aI-220
aI-1900
aI-210
aI-1900
aI-200
aI-1900
aI-190
aI-1900
aI-180
aI-1900
aI-170
aI-1900
aI-160
aI-1900
aI-150
aI-1900
aI-140
aI-1900
aI-130
aI-1900
aI-120
aI-1900
aI-110
aI-1900
aI-100
aI-1900
aI-90
aI-1900
aI-80
aI-1900
aI-70
aI-1900
aI-60
aI-1900
aI-50
aI-1900
aI-40
aI-1900
aI-30
aI-1900
aI-20
aI-1900
aI-10
aI-1900
aI0
aI-1900
aI10
aI-1900
aI20
aI-1900
aI30
aI-1900
aI40
aI-1900
aI50
aI-1900
aI60
aI-1900
aI70
aI-1900
aI80
aI-1900
aI90
aI-1900
aI100
aI-1900
aI110
aI-1900
aI120
aI-1900
aI130
aI-1900
aI140
aI-1900
aI150
aI-1900
aI160
aI-1900
aI170
aI-1900
aI180
aI-1900
aI190
aI-1900
aI200
aI-1900
aI210
aI-1900
aI220
aI-1900
aI230
aI-1900
aI240
aI-1900
aI250
aI-1900
aI260
aI-1900
aI270
aI-1900
aI280
aI-1900
aI290
aI-1900
aI300
aI-1900
aI310
aI-1900
aI320
aI-1900
aI330
aI-1900
aI340
aI-1900
aI350
aI-1900
aI360
aI-1900
aI370
aI-1900
aI380
aI-1900
aI390
aI-1900
aI400
aI-1900
aI410
aI-1900
aI420
aI-1900
aI430
aI-1900
aI440
aI-1900
aI450
aI-1900
aI460
aI-1900
aI470
aI-1900
aI480
aI-1900
aI490
aI-1900
aI500
aI-1900
aI510
aI-1900
aI520
aI-1900
aI530
aI-1900
aI540
aI-1900
aI550
aI-1900
aI560
aI-1900
aI570
aI-1900
aI580
aI-1900
aI590
aI-1900
aI600
aI-1900
aI610
aI-1900
aI620
aI-1900
aI630
aI-1900
aI640
aI-1900
aI650
aI-1900
aI660
aI-1900
aI670
aI-1900
aI680
aI-1900
aI690
aI-1800
aI-700
aI-1800
aI-690
aI-1800
aI-680
aI-1800
aI-670
aI-1800
aI-660
aI-1800
aI-650
aI-1800
aI-640
aI-1800
aI-630
aI-1800
aI-620
aI-1800
aI-610
aI-1800
aI-600
aI-1800
aI-590
aI-1800
aI-580
aI-1800
aI-570
aI-1800
aI-560
aI-1800
aI-550
aI-1800
aI-540
aI-1800
aI-530
aI-1800
aI-520
aI-1800
aI-510
aI-1800
aI-500
aI-1800
aI-490
aI-1800
aI-480
aI-1800
aI-470
aI-1800
aI-460
aI-1800
aI-450
aI-1800
aI-440
aI-1800
aI-430
aI-1800
aI-420
aI-1800
aI-410
aI-1800
aI-400
aI-1800
aI-390
aI-1800
aI-380
aI-1800
aI-370
aI-1800
aI-360
aI-1800
aI-350
aI-1800
aI-340
aI-1800
aI-330
aI-1800
aI-320
aI-1800
aI-310
aI-1800
aI-300
aI-1800
aI-290
aI-1800
aI-280
aI-1800
aI-270
aI-1800
aI-260
aI-1800
aI-250
aI-1800
aI-240
aI-1800
aI-230
aI-1800
aI-220
aI-1800
aI-210
aI-1800
aI-200
aI-1800
aI-190
aI-1800
aI-180
aI-1800
aI-170
aI-1800
aI-160
aI-1800
aI-150
aI-1800
aI-140
aI-1800
aI-130
aI-1800
aI-120
aI-1800
aI-110
aI-1800
aI-100
aI-1800
aI-90
aI-1800
aI-80
aI-1800
aI-70
aI-1800
aI-60
aI-1800
aI-50
aI-1800
aI-40
aI-1800
aI-30
aI-1800
aI-20
aI-1800
aI-10
aI-1800
aI0
aI-1800
aI10
aI-1800
aI20
aI-1800
aI30
aI-1800
aI40
aI-1800
aI50
aI-1800
aI60
aI-1800
aI70
aI-1800
aI80
aI-1800
aI90
aI-1800
aI100
aI-1800
aI110
aI-1800
aI120
aI-1800
aI130
aI-1800
aI140
aI-1800
aI150
aI-1800
aI160
aI-1800
aI170
aI-1800
aI180
aI-1800
aI190
aI-1800
aI200
aI-1800
aI210
aI-1800
aI220
aI-1800
aI230
aI-1800
aI240
aI-1800
aI250
aI-1800
aI260
aI-1800
aI270
aI-1800
aI280
aI-1800
aI290
aI-1800
aI300
aI-1800
aI310
aI-1800
aI320
aI-1800
aI330
aI-1800
aI340
aI-1800
aI350
aI-1800
aI360
aI-1800
aI370
aI-1800
aI380
aI-1800
aI390
aI-1800
aI400
aI-1800
aI410
aI-1800
aI420
aI-1800
aI430
aI-1800
aI440
aI-1800
aI450
aI-1800
aI460
aI-1800
aI470
aI-1800
aI480
aI-1800
aI490
aI-1800
aI500
aI-1800
aI510
aI-1800
aI520
aI-1800
aI530
aI-1800
aI540
aI-1800
aI550
aI-1800
aI560
aI-1800
aI570
aI-1800
aI580
aI-1800
aI590
aI-1800
aI600
aI-1800
aI610
aI-1800
aI620
aI-1800
aI630
aI-1800
aI640
aI-1800
aI650
aI-1800
aI660
aI-1800
aI670
aI-1800
aI680
aI-1800
aI690
aI-1700
aI-700
aI-1700
aI-690
aI-1700
aI-680
aI-1700
aI-670
aI-1700
aI-660
aI-1700
aI-650
aI-1700
aI-640
aI-1700
aI-630
aI-1700
aI-620
aI-1700
aI-610
aI-1700
aI-600
aI-1700
aI-590
aI-1700
aI-580
aI-1700
aI-570
aI-1700
aI-560
aI-1700
aI-550
aI-1700
aI-540
aI-1700
aI-530
aI-1700
aI-520
aI-1700
aI-510
aI-1700
aI-500
aI-1700
aI-490
aI-1700
aI-480
aI-1700
aI-470
aI-1700
aI-460
aI-1700
aI-450
aI-1700
aI-440
aI-1700
aI-430
aI-1700
aI-420
aI-1700
aI-410
aI-1700
aI-400
aI-1700
aI-390
aI-1700
aI-380
aI-1700
aI-370
aI-1700
aI-360
aI-1700
aI-350
aI-1700
aI-340
aI-1700
aI-330
aI-1700
aI-320
aI-1700
aI-310
aI-1700
aI-300
aI-1700
aI-290
aI-1700
aI-280
aI-1700
aI-270
aI-1700
aI-260
aI-1700
aI-250
aI-1700
aI-240
aI-1700
aI-230
aI-1700
aI-220
aI-1700
aI-210
aI-1700
aI-200
aI-1700
aI-190
aI-1700
aI-180
aI-1700
aI-170
aI-1700
aI-160
aI-1700
aI-150
aI-1700
aI-140
aI-1700
aI-130
aI-1700
aI-120
aI-1700
aI-110
aI-1700
aI-100
aI-1700
aI-90
aI-1700
aI-80
aI-1700
aI-70
aI-1700
aI-60
aI-1700
aI-50
aI-1700
aI-40
aI-1700
aI-30
aI-1700
aI-20
aI-1700
aI-10
aI-1700
aI0
aI-1700
aI10
aI-1700
aI20
aI-1700
aI30
aI-1700
aI40
aI-1700
aI50
aI-1700
aI60
aI-1700
aI70
aI-1700
aI80
aI-1700
aI90
aI-1700
aI100
aI-1700
aI110
aI-1700
aI120
aI-1700
aI130
aI-1700
aI140
aI-1700
aI150
aI-1700
aI160
aI-1700
aI170
aI-1700
aI180
aI-1700
aI190
aI-1700
aI200
aI-1700
aI210
aI-1700
aI220
aI-1700
aI230
aI-1700
aI240
aI-1700
aI250
aI-1700
aI260
aI-1700
aI270
aI-1700
aI280
aI-1700
aI290
aI-1700
aI300
aI-1700
aI310
aI-1700
aI320
aI-1700
aI330
aI-1700
aI340
aI-1700
aI350
aI-1700
aI360
aI-1700
aI370
aI-1700
aI380
aI-1700
aI390
aI-1700
aI400
aI-1700
aI410
aI-1700
aI420
aI-1700
aI430
aI-1700
aI440
aI-1700
aI450
aI-1700
aI460
aI-1700
aI470
aI-1700
aI480
aI-1700
aI490
aI-1700
aI500
aI-1700
aI510
aI-1700
aI520
aI-1700
aI530
aI-1700
aI540
aI-1700
aI550
aI-1700
aI560
aI-1700
aI570
aI-1700
aI580
aI-1700
aI590
aI-1700
aI600
aI-1700
aI610
aI-1700
aI620
aI-1700
aI630
aI-1700
aI640
aI-1700
aI650
aI-1700
aI660
aI-1700
aI670
aI-1700
aI680
aI-1700
aI690
aI-1600
aI-700
aI-1600
aI-690
aI-1600
aI-680
aI-1600
aI-670
aI-1600
aI-660
aI-1600
aI-650
aI-1600
aI-640
aI-1600
aI-630
aI-1600
aI-620
aI-1600
aI-610
aI-1600
aI-600
aI-1600
aI-590
aI-1600
aI-580
aI-1600
aI-570
aI-1600
aI-560
aI-1600
aI-550
aI-1600
aI-540
aI-1600
aI-530
aI-1600
aI-520
aI-1600
aI-510
aI-1600
aI-500
aI-1600
aI-490
aI-1600
aI-480
aI-1600
aI-470
aI-1600
aI-460
aI-1600
aI-450
aI-1600
aI-440
aI-1600
aI-430
aI-1600
aI-420
aI-1600
aI-410
aI-1600
aI-400
aI-1600
aI-390
aI-1600
aI-380
aI-1600
aI-370
aI-1600
aI-360
aI-1600
aI-350
aI-1600
aI-340
aI-1600
aI-330
aI-1600
aI-320
aI-1600
aI-310
aI-1600
aI-300
aI-1600
aI-290
aI-1600
aI-280
aI-1600
aI-270
aI-1600
aI-260
aI-1600
aI-250
aI-1600
aI-240
aI-1600
aI-230
aI-1600
aI-220
aI-1600
aI-210
aI-1600
aI-200
aI-1600
aI-190
aI-1600
aI-180
aI-1600
aI-170
aI-1600
aI-160
aI-1600
aI-150
aI-1600
aI-140
aI-1600
aI-130
aI-1600
aI-120
aI-1600
aI-110
aI-1600
aI-100
aI-1600
aI-90
aI-1600
aI-80
aI-1600
aI-70
aI-1600
aI-60
aI-1600
aI-50
aI-1600
aI-40
aI-1600
aI-30
aI-1600
aI-20
aI-1600
aI-10
aI-1600
aI0
aI-1600
aI10
aI-1600
aI20
aI-1600
aI30
aI-1600
aI40
aI-1600
aI50
aI-1600
aI60
aI-1600
aI70
aI-1600
aI80
aI-1600
aI90
aI-1600
aI100
aI-1600
aI110
aI-1600
aI120
aI-1600
aI130
aI-1600
aI140
aI-1600
aI150
aI-1600
aI160
aI-1600
aI170
aI-1600
aI180
aI-1600
aI190
aI-1600
aI200
aI-1600
aI210
aI-1600
aI220
aI-1600
aI230
aI-1600
aI240
aI-1600
aI250
aI-1600
aI260
aI-1600
aI270
aI-1600
aI280
aI-1600
aI290
aI-1600
aI300
aI-1600
aI310
aI-1600
aI320
aI-1600
aI330
aI-1600
aI340
aI-1600
aI350
aI-1600
aI360
aI-1600
aI370
aI-1600
aI380
aI-1600
aI390
aI-1600
aI400
aI-1600
aI410
aI-1600
aI420
aI-1600
aI430
aI-1600
aI440
aI-1600
aI450
aI-1600
aI460
aI-1600
aI470
aI-1600
aI480
aI-1600
aI490
aI-1600
aI500
aI-1600
aI510
aI-1600
aI520
aI-1600
aI530
aI-1600
aI540
aI-1600
aI550
aI-1600
aI560
aI-1600
aI570
aI-1600
aI580
aI-1600
aI590
aI-1600
aI600
aI-1600
aI610
aI-1600
aI620
aI-1600
aI630
aI-1600
aI640
aI-1600
aI650
aI-1600
aI660
aI-1600
aI670
aI-1600
aI680
aI-1600
aI690
aI-1500
aI-700
aI-1500
aI-690
aI-1500
aI-680
aI-1500
aI-670
aI-1500
aI-660
aI-1500
aI-650
aI-1500
aI-640
aI-1500
aI-630
aI-1500
aI-620
aI-1500
aI-610
aI-1500
aI-600
aI-1500
aI-590
aI-1500
aI-580
aI-1500
aI-570
aI-1500
aI-560
aI-1500
aI-550
aI-1500
aI-540
aI-1500
aI-530
aI-1500
aI-520
aI-1500
aI-510
aI-1500
aI-500
aI-1500
aI-490
aI-1500
aI-480
aI-1500
aI-470
aI-1500
aI-460
aI-1500
aI-450
aI-1500
aI-440
aI-1500
aI-430
aI-1500
aI-420
aI-1500
aI-410
aI-1500
aI-400
aI-1500
aI-390
aI-1500
aI-380
aI-1500
aI-370
aI-1500
aI-360
aI-1500
aI-350
aI-1500
aI-340
aI-1500
aI-330
aI-1500
aI-320
aI-1500
aI-310
aI-1500
aI-300
aI-1500
aI-290
aI-1500
aI-280
aI-1500
aI-270
aI-1500
aI-260
aI-1500
aI-250
aI-1500
aI-240
aI-1500
aI-230
aI-1500
aI-220
aI-1500
aI-210
aI-1500
aI-200
aI-1500
aI-190
aI-1500
aI-180
aI-1500
aI-170
aI-1500
aI-160
aI-1500
aI-150
aI-1500
aI-140
aI-1500
aI-130
aI-1500
aI-120
aI-1500
aI-110
aI-1500
aI-100
aI-1500
aI-90
aI-1500
aI-80
aI-1500
aI-70
aI-1500
aI-60
aI-1500
aI-50
aI-1500
aI-40
aI-1500
aI-30
aI-1500
aI-20
aI-1500
aI-10
aI-1500
aI0
aI-1500
aI10
aI-1500
aI20
aI-1500
aI30
aI-1500
aI40
aI-1500
aI50
aI-1500
aI60
aI-1500
aI70
aI-1500
aI80
aI-1500
aI90
aI-1500
aI100
aI-1500
aI110
aI-1500
aI120
aI-1500
aI130
aI-1500
aI140
aI-1500
aI150
aI-1500
aI160
aI-1500
aI170
aI-1500
aI180
aI-1500
aI190
aI-1500
aI200
aI-1500
aI210
aI-1500
aI220
aI-1500
aI230
aI-1500
aI240
aI-1500
aI250
aI-1500
aI260
aI-1500
aI270
aI-1500
aI280
aI-1500
aI290
aI-1500
aI300
aI-1500
aI310
aI-1500
aI320
aI-1500
aI330
aI-1500
aI340
aI-1500
aI350
aI-1500
aI360
aI-1500
aI370
aI-1500
aI380
aI-1500
aI390
aI-1500
aI400
aI-1500
aI410
aI-1500
aI420
aI-1500
aI430
aI-1500
aI440
aI-1500
aI450
aI-1500
aI460
aI-1500
aI470
aI-1500
aI480
aI-1500
aI490
aI-1500
aI500
aI-1500
aI510
aI-1500
aI520
aI-1500
aI530
aI-1500
aI540
aI-1500
aI550
aI-1500
aI560
aI-1500
aI570
aI-1500
aI580
aI-1500
aI590
aI-1500
aI600
aI-1500
aI610
aI-1500
aI620
aI-1500
aI630
aI-1500
aI640
aI-1500
aI650
aI-1500
aI660
aI-1500
aI670
aI-1500
aI680
aI-1500
aI690
aI-1400
aI-700
aI-1400
aI-690
aI-1400
aI-680
aI-1400
aI-670
aI-1400
aI-660
aI-1400
aI-650
aI-1400
aI-640
aI-1400
aI-630
aI-1400
aI-620
aI-1400
aI-610
aI-1400
aI-600
aI-1400
aI-590
aI-1400
aI-580
aI-1400
aI-570
aI-1400
aI-560
aI-1400
aI-550
aI-1400
aI-540
aI-1400
aI-530
aI-1400
aI-520
aI-1400
aI-510
aI-1400
aI-500
aI-1400
aI-490
aI-1400
aI-480
aI-1400
aI-470
aI-1400
aI-460
aI-1400
aI-450
aI-1400
aI-440
aI-1400
aI-430
aI-1400
aI-420
aI-1400
aI-410
aI-1400
aI-400
aI-1400
aI-390
aI-1400
aI-380
aI-1400
aI-370
aI-1400
aI-360
aI-1400
aI-350
aI-1400
aI-340
aI-1400
aI-330
aI-1400
aI-320
aI-1400
aI-310
aI-1400
aI-300
aI-1400
aI-290
aI-1400
aI-280
aI-1400
aI-270
aI-1400
aI-260
aI-1400
aI-250
aI-1400
aI-240
aI-1400
aI-230
aI-1400
aI-220
aI-1400
aI-210
aI-1400
aI-200
aI-1400
aI-190
aI-1400
aI-180
aI-1400
aI-170
aI-1400
aI-160
aI-1400
aI-150
aI-1400
aI-140
aI-1400
aI-130
aI-1400
aI-120
aI-1400
aI-110
aI-1400
aI-100
aI-1400
aI-90
aI-1400
aI-80
aI-1400
aI-70
aI-1400
aI-60
aI-1400
aI-50
aI-1400
aI-40
aI-1400
aI-30
aI-1400
aI-20
aI-1400
aI-10
aI-1400
aI0
aI-1400
aI10
aI-1400
aI20
aI-1400
aI30
aI-1400
aI40
aI-1400
aI50
aI-1400
aI60
aI-1400
aI70
aI-1400
aI80
aI-1400
aI90
aI-1400
aI100
aI-1400
aI110
aI-1400
aI120
aI-1400
aI130
aI-1400
aI140
aI-1400
aI150
aI-1400
aI160
aI-1400
aI170
aI-1400
aI180
aI-1400
aI190
aI-1400
aI200
aI-1400
aI210
aI-1400
aI220
aI-1400
aI230
aI-1400
aI240
aI-1400
aI250
aI-1400
aI260
aI-1400
aI270
aI-1400
aI280
aI-1400
aI290
aI-1400
aI300
aI-1400
aI310
aI-1400
aI320
aI-1400
aI330
aI-1400
aI340
aI-1400
aI350
aI-1400
aI360
aI-1400
aI370
aI-1400
aI380
aI-1400
aI390
aI-1400
aI400
aI-1400
aI410
aI-1400
aI420
aI-1400
aI430
aI-1400
aI440
aI-1400
aI450
aI-1400
aI460
aI-1400
aI470
aI-1400
aI480
aI-1400
aI490
aI-1400
aI500
aI-1400
aI510
aI-1400
aI520
aI-1400
aI530
aI-1400
aI540
aI-1400
aI550
aI-1400
aI560
aI-1400
aI570
aI-1400
aI580
aI-1400
aI590
aI-1400
aI600
aI-1400
aI610
aI-1400
aI620
aI-1400
aI630
aI-1400
aI640
aI-1400
aI650
aI-1400
aI660
aI-1400
aI670
aI-1400
aI680
aI-1400
aI690
aI-1300
aI-700
aI-1300
aI-690
aI-1300
aI-680
aI-1300
aI-670
aI-1300
aI-660
aI-1300
aI-650
aI-1300
aI-640
aI-1300
aI-630
aI-1300
aI-620
aI-1300
aI-610
aI-1300
aI-600
aI-1300
aI-590
aI-1300
aI-580
aI-1300
aI-570
aI-1300
aI-560
aI-1300
aI-550
aI-1300
aI-540
aI-1300
aI-530
aI-1300
aI-520
aI-1300
aI-510
aI-1300
aI-500
aI-1300
aI-490
aI-1300
aI-480
aI-1300
aI-470
aI-1300
aI-460
aI-1300
aI-450
aI-1300
aI-440
aI-1300
aI-430
aI-1300
aI-420
aI-1300
aI-410
aI-1300
aI-400
aI-1300
aI-390
aI-1300
aI-380
aI-1300
aI-370
aI-1300
aI-360
aI-1300
aI-350
aI-1300
aI-340
aI-1300
aI-330
aI-1300
aI-320
aI-1300
aI-310
aI-1300
aI-300
aI-1300
aI-290
aI-1300
aI-280
aI-1300
aI-270
aI-1300
aI-260
aI-1300
aI-250
aI-1300
aI-240
aI-1300
aI-230
aI-1300
aI-220
aI-1300
aI-210
aI-1300
aI-200
aI-1300
aI-190
aI-1300
aI-180
aI-1300
aI-170
aI-1300
aI-160
aI-1300
aI-150
aI-1300
aI-140
aI-1300
aI-130
aI-1300
aI-120
aI-1300
aI-110
aI-1300
aI-100
aI-1300
aI-90
aI-1300
aI-80
aI-1300
aI-70
aI-1300
aI-60
aI-1300
aI-50
aI-1300
aI-40
aI-1300
aI-30
aI-1300
aI-20
aI-1300
aI-10
aI-1300
aI0
aI-1300
aI10
aI-1300
aI20
aI-1300
aI30
aI-1300
aI40
aI-1300
aI50
aI-1300
aI60
aI-1300
aI70
aI-1300
aI80
aI-1300
aI90
aI-1300
aI100
aI-1300
aI110
aI-1300
aI120
aI-1300
aI130
aI-1300
aI140
aI-1300
aI150
aI-1300
aI160
aI-1300
aI170
aI-1300
aI180
aI-1300
aI190
aI-1300
aI200
aI-1300
aI210
aI-1300
aI220
aI-1300
aI230
aI-1300
aI240
aI-1300
aI250
aI-1300
aI260
aI-1300
aI270
aI-1300
aI280
aI-1300
aI290
aI-1300
aI300
aI-1300
aI310
aI-1300
aI320
aI-1300
aI330
aI-1300
aI340
aI-1300
aI350
aI-1300
aI360
aI-1300
aI370
aI-1300
aI380
aI-1300
aI390
aI-1300
aI400
aI-1300
aI410
aI-1300
aI420
aI-1300
aI430
aI-1300
aI440
aI-1300
aI450
aI-1300
aI460
aI-1300
aI470
aI-1300
aI480
aI-1300
aI490
aI-1300
aI500
aI-1300
aI510
aI-1300
aI520
aI-1300
aI530
aI-1300
aI540
aI-1300
aI550
aI-1300
aI560
aI-1300
aI570
aI-1300
aI580
aI-1300
aI590
aI-1300
aI600
aI-1300
aI610
aI-1300
aI620
aI-1300
aI630
aI-1300
aI640
aI-1300
aI650
aI-1300
aI660
aI-1300
aI670
aI-1300
aI680
aI-1300
aI690
aI-1200
aI-700
aI-1200
aI-690
aI-1200
aI-680
aI-1200
aI-670
aI-1200
aI-660
aI-1200
aI-650
aI-1200
aI-640
aI-1200
aI-630
aI-1200
aI-620
aI-1200
aI-610
aI-1200
aI-600
aI-1200
aI-590
aI-1200
aI-580
aI-1200
aI-570
aI-1200
aI-560
aI-1200
aI-550
aI-1200
aI-540
aI-1200
aI-530
aI-1200
aI-520
aI-1200
aI-510
aI-1200
aI-500
aI-1200
aI-490
aI-1200
aI-480
aI-1200
aI-470
aI-1200
aI-460
aI-1200
aI-450
aI-1200
aI-440
aI-1200
aI-430
aI-1200
aI-420
aI-1200
aI-410
aI-1200
aI-400
aI-1200
aI-390
aI-1200
aI-380
aI-1200
aI-370
aI-1200
aI-360
aI-1200
aI-350
aI-1200
aI-340
aI-1200
aI-330
aI-1200
aI-320
aI-1200
aI-310
aI-1200
aI-300
aI-1200
aI-290
aI-1200
aI-280
aI-1200
aI-270
aI-1200
aI-260
aI-1200
aI-250
aI-1200
aI-240
aI-1200
aI-230
aI-1200
aI-220
aI-1200
aI-210
aI-1200
aI-200
aI-1200
aI-190
aI-1200
aI-180
aI-1200
aI-170
aI-1200
aI-160
aI-1200
aI-150
aI-1200
aI-140
aI-1200
aI-130
aI-1200
aI-120
aI-1200
aI-110
aI-1200
aI-100
aI-1200
aI-90
aI-1200
aI-80
aI-1200
aI-70
aI-1200
aI-60
aI-1200
aI-50
aI-1200
aI-40
aI-1200
aI-30
aI-1200
aI-20
aI-1200
aI-10
aI-1200
aI0
aI-1200
aI10
aI-1200
aI20
aI-1200
aI30
aI-1200
aI40
aI-1200
aI50
aI-1200
aI60
aI-1200
aI70
aI-1200
aI80
aI-1200
aI90
aI-1200
aI100
aI-1200
aI110
aI-1200
aI120
aI-1200
aI130
aI-1200
aI140
aI-1200
aI150
aI-1200
aI160
aI-1200
aI170
aI-1200
aI180
aI-1200
aI190
aI-1200
aI200
aI-1200
aI210
aI-1200
aI220
aI-1200
aI230
aI-1200
aI240
aI-1200
aI250
aI-1200
aI260
aI-1200
aI270
aI-1200
aI280
aI-1200
aI290
aI-1200
aI300
aI-1200
aI310
aI-1200
aI320
aI-1200
aI330
aI-1200
aI340
aI-1200
aI350
aI-1200
aI360
aI-1200
aI370
aI-1200
aI380
aI-1200
aI390
aI-1200
aI400
aI-1200
aI410
aI-1200
aI420
aI-1200
aI430
aI-1200
aI440
aI-1200
aI450
aI-1200
aI460
aI-1200
aI470
aI-1200
aI480
aI-1200
aI490
aI-1200
aI500
aI-1200
aI510
aI-1200
aI520
aI-1200
aI530
aI-1200
aI540
aI-1200
aI550
aI-1200
aI560
aI-1200
aI570
aI-1200
aI580
aI-1200
aI590
aI-1200
aI600
aI-1200
aI610
aI-1200
aI620
aI-1200
aI630
aI-1200
aI640
aI-1200
aI650
aI-1200
aI660
aI-1200
aI670
aI-1200
aI680
aI-1200
aI690
aI-1100
aI-700
aI-1100
aI-690
aI-1100
aI-680
aI-1100
aI-670
aI-1100
aI-660
aI-1100
aI-650
aI-1100
aI-640
aI-1100
aI-630
aI-1100
aI-620
aI-1100
aI-610
aI-1100
aI-600
aI-1100
aI-590
aI-1100
aI-580
aI-1100
aI-570
aI-1100
aI-560
aI-1100
aI-550
aI-1100
aI-540
aI-1100
aI-530
aI-1100
aI-520
aI-1100
aI-510
aI-1100
aI-500
aI-1100
aI-490
aI-1100
aI-480
aI-1100
aI-470
aI-1100
aI-460
aI-1100
aI-450
aI-1100
aI-440
aI-1100
aI-430
aI-1100
aI-420
aI-1100
aI-410
aI-1100
aI-400
aI-1100
aI-390
aI-1100
aI-380
aI-1100
aI-370
aI-1100
aI-360
aI-1100
aI-350
aI-1100
aI-340
aI-1100
aI-330
aI-1100
aI-320
aI-1100
aI-310
aI-1100
aI-300
aI-1100
aI-290
aI-1100
aI-280
aI-1100
aI-270
aI-1100
aI-260
aI-1100
aI-250
aI-1100
aI-240
aI-1100
aI-230
aI-1100
aI-220
aI-1100
aI-210
aI-1100
aI-200
aI-1100
aI-190
aI-1100
aI-180
aI-1100
aI-170
aI-1100
aI-160
aI-1100
aI-150
aI-1100
aI-140
aI-1100
aI-130
aI-1100
aI-120
aI-1100
aI-110
aI-1100
aI-100
aI-1100
aI-90
aI-1100
aI-80
aI-1100
aI-70
aI-1100
aI-60
aI-1100
aI-50
aI-1100
aI-40
aI-1100
aI-30
aI-1100
aI-20
aI-1100
aI-10
aI-1100
aI0
aI-1100
aI10
aI-1100
aI20
aI-1100
aI30
aI-1100
aI40
aI-1100
aI50
aI-1100
aI60
aI-1100
aI70
aI-1100
aI80
aI-1100
aI90
aI-1100
aI100
aI-1100
aI110
aI-1100
aI120
aI-1100
aI130
aI-1100
aI140
aI-1100
aI150
aI-1100
aI160
aI-1100
aI170
aI-1100
aI180
aI-1100
aI190
aI-1100
aI200
aI-1100
aI210
aI-1100
aI220
aI-1100
aI230
aI-1100
aI240
aI-1100
aI250
aI-1100
aI260
aI-1100
aI270
aI-1100
aI280
aI-1100
aI290
aI-1100
aI300
aI-1100
aI310
aI-1100
aI320
aI-1100
aI330
aI-1100
aI340
aI-1100
aI350
aI-1100
aI360
aI-1100
aI370
aI-1100
aI380
aI-1100
aI390
aI-1100
aI400
aI-1100
aI410
aI-1100
aI420
aI-1100
aI430
aI-1100
aI440
aI-1100
aI450
aI-1100
aI460
aI-1100
aI470
aI-1100
aI480
aI-1100
aI490
aI-1100
aI500
aI-1100
aI510
aI-1100
aI520
aI-1100
aI530
aI-1100
aI540
aI-1100
aI550
aI-1100
aI560
aI-1100
aI570
aI-1100
aI580
aI-1100
aI590
aI-1100
aI600
aI-1100
aI610
aI-1100
aI620
aI-1100
aI630
aI-1100
aI640
aI-1100
aI650
aI-1100
aI660
aI-1100
aI670
aI-1100
aI680
aI-1100
aI690
aI-1000
aI-700
aI-1000
aI-690
aI-1000
aI-680
aI-1000
aI-670
aI-1000
aI-660
aI-1000
aI-650
aI-1000
aI-640
aI-1000
aI-630
aI-1000
aI-620
aI-1000
aI-610
aI-1000
aI-600
aI-1000
aI-590
aI-1000
aI-580
aI-1000
aI-570
aI-1000
aI-560
aI-1000
aI-550
aI-1000
aI-540
aI-1000
aI-530
aI-1000
aI-520
aI-1000
aI-510
aI-1000
aI-500
aI-1000
aI-490
aI-1000
aI-480
aI-1000
aI-470
aI-1000
aI-460
aI-1000
aI-450
aI-1000
aI-440
aI-1000
aI-430
aI-1000
aI-420
aI-1000
aI-410
aI-1000
aI-400
aI-1000
aI-390
aI-1000
aI-380
aI-1000
aI-370
aI-1000
aI-360
aI-1000
aI-350
aI-1000
aI-340
aI-1000
aI-330
aI-1000
aI-320
aI-1000
aI-310
aI-1000
aI-300
aI-1000
aI-290
aI-1000
aI-280
aI-1000
aI-270
aI-1000
aI-260
aI-1000
aI-250
aI-1000
aI-240
aI-1000
aI-230
aI-1000
aI-220
aI-1000
aI-210
aI-1000
aI-200
aI-1000
aI-190
aI-1000
aI-180
aI-1000
aI-170
aI-1000
aI-160
aI-1000
aI-150
aI-1000
aI-140
aI-1000
aI-130
aI-1000
aI-120
aI-1000
aI-110
aI-1000
aI-100
aI-1000
aI-90
aI-1000
aI-80
aI-1000
aI-70
aI-1000
aI-60
aI-1000
aI-50
aI-1000
aI-40
aI-1000
aI-30
aI-1000
aI-20
aI-1000
aI-10
aI-1000
aI0
aI-1000
aI10
aI-1000
aI20
aI-1000
aI30
aI-1000
aI40
aI-1000
aI50
aI-1000
aI60
aI-1000
aI70
aI-1000
aI80
aI-1000
aI90
aI-1000
aI100
aI-1000
aI110
aI-1000
aI120
aI-1000
aI130
aI-1000
aI140
aI-1000
aI150
aI-1000
aI160
aI-1000
aI170
aI-1000
aI180
aI-1000
aI190
aI-1000
aI200
aI-1000
aI210
aI-1000
aI220
aI-1000
aI230
aI-1000
aI240
aI-1000
aI250
aI-1000
aI260
aI-1000
aI270
aI-1000
aI280
aI-1000
aI290
aI-1000
aI300
aI-1000
aI310
aI-1000
aI320
aI-1000
aI330
aI-1000
aI340
aI-1000
aI350
aI-1000
aI360
aI-1000
aI370
aI-1000
aI380
aI-1000
aI390
aI-1000
aI400
aI-1000
aI410
aI-1000
aI420
aI-1000
aI430
aI-1000
aI440
aI-1000
aI450
aI-1000
aI460
aI-1000
aI470
aI-1000
aI480
aI-1000
aI490
aI-1000
aI500
aI-1000
aI510
aI-1000
aI520
aI-1000
aI530
aI-1000
aI540
aI-1000
aI550
aI-1000
aI560
aI-1000
aI570
aI-1000
aI580
aI-1000
aI590
aI-1000
aI600
aI-1000
aI610
aI-1000
aI620
aI-1000
aI630
aI-1000
aI640
aI-1000
aI650
aI-1000
aI660
aI-1000
aI670
aI-1000
aI680
aI-1000
aI690
aI-900
aI-700
aI-900
aI-690
aI-900
aI-680
aI-900
aI-670
aI-900
aI-660
aI-900
aI-650
aI-900
aI-640
aI-900
aI-630
aI-900
aI-620
aI-900
aI-610
aI-900
aI-600
aI-900
aI-590
aI-900
aI-580
aI-900
aI-570
aI-900
aI-560
aI-900
aI-550
aI-900
aI-540
aI-900
aI-530
aI-900
aI-520
aI-900
aI-510
aI-900
aI-500
aI-900
aI-490
aI-900
aI-480
aI-900
aI-470
aI-900
aI-460
aI-900
aI-450
aI-900
aI-440
aI-900
aI-430
aI-900
aI-420
aI-900
aI-410
aI-900
aI-400
aI-900
aI-390
aI-900
aI-380
aI-900
aI-370
aI-900
aI-360
aI-900
aI-350
aI-900
aI-340
aI-900
aI-330
aI-900
aI-320
aI-900
aI-310
aI-900
aI-300
aI-900
aI-290
aI-900
aI-280
aI-900
aI-270
aI-900
aI-260
aI-900
aI-250
aI-900
aI-240
aI-900
aI-230
aI-900
aI-220
aI-900
aI-210
aI-900
aI-200
aI-900
aI-190
aI-900
aI-180
aI-900
aI-170
aI-900
aI-160
aI-900
aI-150
aI-900
aI-140
aI-900
aI-130
aI-900
aI-120
aI-900
aI-110
aI-900
aI-100
aI-900
aI-90
aI-900
aI-80
aI-900
aI-70
aI-900
aI-60
aI-900
aI-50
aI-900
aI-40
aI-900
aI-30
aI-900
aI-20
aI-900
aI-10
aI-900
aI0
aI-900
aI10
aI-900
aI20
aI-900
aI30
aI-900
aI40
aI-900
aI50
aI-900
aI60
aI-900
aI70
aI-900
aI80
aI-900
aI90
aI-900
aI100
aI-900
aI110
aI-900
aI120
aI-900
aI130
aI-900
aI140
aI-900
aI150
aI-900
aI160
aI-900
aI170
aI-900
aI180
aI-900
aI190
aI-900
aI200
aI-900
aI210
aI-900
aI220
aI-900
aI230
aI-900
aI240
aI-900
aI250
aI-900
aI260
aI-900
aI270
aI-900
aI280
aI-900
aI290
aI-900
aI300
aI-900
aI310
aI-900
aI320
aI-900
aI330
aI-900
aI340
aI-900
aI350
aI-900
aI360
aI-900
aI370
aI-900
aI380
aI-900
aI390
aI-900
aI400
aI-900
aI410
aI-900
aI420
aI-900
aI430
aI-900
aI440
aI-900
aI450
aI-900
aI460
aI-900
aI470
aI-900
aI480
aI-900
aI490
aI-900
aI500
aI-900
aI510
aI-900
aI520
aI-900
aI530
aI-900
aI540
aI-900
aI550
aI-900
aI560
aI-900
aI570
aI-900
aI580
aI-900
aI590
aI-900
aI600
aI-900
aI610
aI-900
aI620
aI-900
aI630
aI-900
aI640
aI-900
aI650
aI-900
aI660
aI-900
aI670
aI-900
aI680
aI-900
aI690
aI-800
aI-700
aI-800
aI-690
aI-800
aI-680
aI-800
aI-670
aI-800
aI-660
aI-800
aI-650
aI-800
aI-640
aI-800
aI-630
aI-800
aI-620
aI-800
aI-610
aI-800
aI-600
aI-800
aI-590
aI-800
aI-580
aI-800
aI-570
aI-800
aI-560
aI-800
aI-550
aI-800
aI-540
aI-800
aI-530
aI-800
aI-520
aI-800
aI-510
aI-800
aI-500
aI-800
aI-490
aI-800
aI-480
aI-800
aI-470
aI-800
aI-460
aI-800
aI-450
aI-800
aI-440
aI-800
aI-430
aI-800
aI-420
aI-800
aI-410
aI-800
aI-400
aI-800
aI-390
aI-800
aI-380
aI-800
aI-370
aI-800
aI-360
aI-800
aI-350
aI-800
aI-340
aI-800
aI-330
aI-800
aI-320
aI-800
aI-310
aI-800
aI-300
aI-800
aI-290
aI-800
aI-280
aI-800
aI-270
aI-800
aI-260
aI-800
aI-250
aI-800
aI-240
aI-800
aI-230
aI-800
aI-220
aI-800
aI-210
aI-800
aI-200
aI-800
aI-190
aI-800
aI-180
aI-800
aI-170
aI-800
aI-160
aI-800
aI-150
aI-800
aI-140
aI-800
aI-130
aI-800
aI-120
aI-800
aI-110
aI-800
aI-100
aI-800
aI-90
aI-800
aI-80
aI-800
aI-70
aI-800
aI-60
aI-800
aI-50
aI-800
aI-40
aI-800
aI-30
aI-800
aI-20
aI-800
aI-10
aI-800
aI0
aI-800
aI10
aI-800
aI20
aI-800
aI30
aI-800
aI40
aI-800
aI50
aI-800
aI60
aI-800
aI70
aI-800
aI80
aI-800
aI90
aI-800
aI100
aI-800
aI110
aI-800
aI120
aI-800
aI130
aI-800
aI140
aI-800
aI150
aI-800
aI160
aI-800
aI170
aI-800
aI180
aI-800
aI190
aI-800
aI200
aI-800
aI210
aI-800
aI220
aI-800
aI230
aI-800
aI240
aI-800
aI250
aI-800
aI260
aI-800
aI270
aI-800
aI280
aI-800
aI290
aI-800
aI300
aI-800
aI310
aI-800
aI320
aI-800
aI330
aI-800
aI340
aI-800
aI350
aI-800
aI360
aI-800
aI370
aI-800
aI380
aI-800
aI390
aI-800
aI400
aI-800
aI410
aI-800
aI420
aI-800
aI430
aI-800
aI440
aI-800
aI450
aI-800
aI460
aI-800
aI470
aI-800
aI480
aI-800
aI490
aI-800
aI500
aI-800
aI510
aI-800
aI520
aI-800
aI530
aI-800
aI540
aI-800
aI550
aI-800
aI560
aI-800
aI570
aI-800
aI580
aI-800
aI590
aI-800
aI600
aI-800
aI610
aI-800
aI620
aI-800
aI630
aI-800
aI640
aI-800
aI650
aI-800
aI660
aI-800
aI670
aI-800
aI680
aI-800
aI690
aI-700
aI-700
aI-700
aI-690
aI-700
aI-680
aI-700
aI-670
aI-700
aI-660
aI-700
aI-650
aI-700
aI-640
aI-700
aI-630
aI-700
aI-620
aI-700
aI-610
aI-700
aI-600
aI-700
aI-590
aI-700
aI-580
aI-700
aI-570
aI-700
aI-560
aI-700
aI-550
aI-700
aI-540
aI-700
aI-530
aI-700
aI-520
aI-700
aI-510
aI-700
aI-500
aI-700
aI-490
aI-700
aI-480
aI-700
aI-470
aI-700
aI-460
aI-700
aI-450
aI-700
aI-440
aI-700
aI-430
aI-700
aI-420
aI-700
aI-410
aI-700
aI-400
aI-700
aI-390
aI-700
aI-380
aI-700
aI-370
aI-700
aI-360
aI-700
aI-350
aI-700
aI-340
aI-700
aI-330
aI-700
aI-320
aI-700
aI-310
aI-700
aI-300
aI-700
aI-290
aI-700
aI-280
aI-700
aI-270
aI-700
aI-260
aI-700
aI-250
aI-700
aI-240
aI-700
aI-230
aI-700
aI-220
aI-700
aI-210
aI-700
aI-200
aI-700
aI-190
aI-700
aI-180
aI-700
aI-170
aI-700
aI-160
aI-700
aI-150
aI-700
aI-140
aI-700
aI-130
aI-700
aI-120
aI-700
aI-110
aI-700
aI-100
aI-700
aI-90
aI-700
aI-80
aI-700
aI-70
aI-700
aI-60
aI-700
aI-50
aI-700
aI-40
aI-700
aI-30
aI-700
aI-20
aI-700
aI-10
aI-700
aI0
aI-700
aI10
aI-700
aI20
aI-700
aI30
aI-700
aI40
aI-700
aI50
aI-700
aI60
aI-700
aI70
aI-700
aI80
aI-700
aI90
aI-700
aI100
aI-700
aI110
aI-700
aI120
aI-700
aI130
aI-700
aI140
aI-700
aI150
aI-700
aI160
aI-700
aI170
aI-700
aI180
aI-700
aI190
aI-700
aI200
aI-700
aI210
aI-700
aI220
aI-700
aI230
aI-700
aI240
aI-700
aI250
aI-700
aI260
aI-700
aI270
aI-700
aI280
aI-700
aI290
aI-700
aI300
aI-700
aI310
aI-700
aI320
aI-700
aI330
aI-700
aI340
aI-700
aI350
aI-700
aI360
aI-700
aI370
aI-700
aI380
aI-700
aI390
aI-700
aI400
aI-700
aI410
aI-700
aI420
aI-700
aI430
aI-700
aI440
aI-700
aI450
aI-700
aI460
aI-700
aI470
aI-700
aI480
aI-700
aI490
aI-700
aI500
aI-700
aI510
aI-700
aI520
aI-700
aI530
aI-700
aI540
aI-700
aI550
aI-700
aI560
aI-700
aI570
aI-700
aI580
aI-700
aI590
aI-700
aI600
aI-700
aI610
aI-700
aI620
aI-700
aI630
aI-700
aI640
aI-700
aI650
aI-700
aI660
aI-700
aI670
aI-700
aI680
aI-700
aI690
aI-600
aI-700
aI-600
aI-690
aI-600
aI-680
aI-600
aI-670
aI-600
aI-660
aI-600
aI-650
aI-600
aI-640
aI-600
aI-630
aI-600
aI-620
aI-600
aI-610
aI-600
aI-600
aI-600
aI-590
aI-600
aI-580
aI-600
aI-570
aI-600
aI-560
aI-600
aI-550
aI-600
aI-540
aI-600
aI-530
aI-600
aI-520
aI-600
aI-510
aI-600
aI-500
aI-600
aI-490
aI-600
aI-480
aI-600
aI-470
aI-600
aI-460
aI-600
aI-450
aI-600
aI-440
aI-600
aI-430
aI-600
aI-420
aI-600
aI-410
aI-600
aI-400
aI-600
aI-390
aI-600
aI-380
aI-600
aI-370
aI-600
aI-360
aI-600
aI-350
aI-600
aI-340
aI-600
aI-330
aI-600
aI-320
aI-600
aI-310
aI-600
aI-300
aI-600
aI-290
aI-600
aI-280
aI-600
aI-270
aI-600
aI-260
aI-600
aI-250
aI-600
aI-240
aI-600
aI-230
aI-600
aI-220
aI-600
aI-210
aI-600
aI-200
aI-600
aI-190
aI-600
aI-180
aI-600
aI-170
aI-600
aI-160
aI-600
aI-150
aI-600
aI-140
aI-600
aI-130
aI-600
aI-120
aI-600
aI-110
aI-600
aI-100
aI-600
aI-90
aI-600
aI-80
aI-600
aI-70
aI-600
aI-60
aI-600
aI-50
aI-600
aI-40
aI-600
aI-30
aI-600
aI-20
aI-600
aI-10
aI-600
aI0
aI-600
aI10
aI-600
aI20
aI-600
aI30
aI-600
aI40
aI-600
aI50
aI-600
aI60
aI-600
aI70
aI-600
aI80
aI-600
aI90
aI-600
aI100
aI-600
aI110
aI-600
aI120
aI-600
aI130
aI-600
aI140
aI-600
aI150
aI-600
aI160
aI-600
aI170
aI-600
aI180
aI-600
aI190
aI-600
aI200
aI-600
aI210
aI-600
aI220
aI-600
aI230
aI-600
aI240
aI-600
aI250
aI-600
aI260
aI-600
aI270
aI-600
aI280
aI-600
aI290
aI-600
aI300
aI-600
aI310
aI-600
aI320
aI-600
aI330
aI-600
aI340
aI-600
aI350
aI-600
aI360
aI-600
aI370
aI-600
aI380
aI-600
aI390
aI-600
aI400
aI-600
aI410
aI-600
aI420
aI-600
aI430
aI-600
aI440
aI-600
aI450
aI-600
aI460
aI-600
aI470
aI-600
aI480
aI-600
aI490
aI-600
aI500
aI-600
aI510
aI-600
aI520
aI-600
aI530
aI-600
aI540
aI-600
aI550
aI-600
aI560
aI-600
aI570
aI-600
aI580
aI-600
aI590
aI-600
aI600
aI-600
aI610
aI-600
aI620
aI-600
aI630
aI-600
aI640
aI-600
aI650
aI-600
aI660
aI-600
aI670
aI-600
aI680
aI-600
aI690
aI-500
aI-700
aI-500
aI-690
aI-500
aI-680
aI-500
aI-670
aI-500
aI-660
aI-500
aI-650
aI-500
aI-640
aI-500
aI-630
aI-500
aI-620
aI-500
aI-610
aI-500
aI-600
aI-500
aI-590
aI-500
aI-580
aI-500
aI-570
aI-500
aI-560
aI-500
aI-550
aI-500
aI-540
aI-500
aI-530
aI-500
aI-520
aI-500
aI-510
aI-500
aI-500
aI-500
aI-490
aI-500
aI-480
aI-500
aI-470
aI-500
aI-460
aI-500
aI-450
aI-500
aI-440
aI-500
aI-430
aI-500
aI-420
aI-500
aI-410
aI-500
aI-400
aI-500
aI-390
aI-500
aI-380
aI-500
aI-370
aI-500
aI-360
aI-500
aI-350
aI-500
aI-340
aI-500
aI-330
aI-500
aI-320
aI-500
aI-310
aI-500
aI-300
aI-500
aI-290
aI-500
aI-280
aI-500
aI-270
aI-500
aI-260
aI-500
aI-250
aI-500
aI-240
aI-500
aI-230
aI-500
aI-220
aI-500
aI-210
aI-500
aI-200
aI-500
aI-190
aI-500
aI-180
aI-500
aI-170
aI-500
aI-160
aI-500
aI-150
aI-500
aI-140
aI-500
aI-130
aI-500
aI-120
aI-500
aI-110
aI-500
aI-100
aI-500
aI-90
aI-500
aI-80
aI-500
aI-70
aI-500
aI-60
aI-500
aI-50
aI-500
aI-40
aI-500
aI-30
aI-500
aI-20
aI-500
aI-10
aI-500
aI0
aI-500
aI10
aI-500
aI20
aI-500
aI30
aI-500
aI40
aI-500
aI50
aI-500
aI60
aI-500
aI70
aI-500
aI80
aI-500
aI90
aI-500
aI100
aI-500
aI110
aI-500
aI120
aI-500
aI130
aI-500
aI140
aI-500
aI150
aI-500
aI160
aI-500
aI170
aI-500
aI180
aI-500
aI190
aI-500
aI200
aI-500
aI210
aI-500
aI220
aI-500
aI230
aI-500
aI240
aI-500
aI250
aI-500
aI260
aI-500
aI270
aI-500
aI280
aI-500
aI290
aI-500
aI300
aI-500
aI310
aI-500
aI320
aI-500
aI330
aI-500
aI340
aI-500
aI350
aI-500
aI360
aI-500
aI370
aI-500
aI380
aI-500
aI390
aI-500
aI400
aI-500
aI410
aI-500
aI420
aI-500
aI430
aI-500
aI440
aI-500
aI450
aI-500
aI460
aI-500
aI470
aI-500
aI480
aI-500
aI490
aI-500
aI500
aI-500
aI510
aI-500
aI520
aI-500
aI530
aI-500
aI540
aI-500
aI550
aI-500
aI560
aI-500
aI570
aI-500
aI580
aI-500
aI590
aI-500
aI600
aI-500
aI610
aI-500
aI620
aI-500
aI630
aI-500
aI640
aI-500
aI650
aI-500
aI660
aI-500
aI670
aI-500
aI680
aI-500
aI690
aI-400
aI-700
aI-400
aI-690
aI-400
aI-680
aI-400
aI-670
aI-400
aI-660
aI-400
aI-650
aI-400
aI-640
aI-400
aI-630
aI-400
aI-620
aI-400
aI-610
aI-400
aI-600
aI-400
aI-590
aI-400
aI-580
aI-400
aI-570
aI-400
aI-560
aI-400
aI-550
aI-400
aI-540
aI-400
aI-530
aI-400
aI-520
aI-400
aI-510
aI-400
aI-500
aI-400
aI-490
aI-400
aI-480
aI-400
aI-470
aI-400
aI-460
aI-400
aI-450
aI-400
aI-440
aI-400
aI-430
aI-400
aI-420
aI-400
aI-410
aI-400
aI-400
aI-400
aI-390
aI-400
aI-380
aI-400
aI-370
aI-400
aI-360
aI-400
aI-350
aI-400
aI-340
aI-400
aI-330
aI-400
aI-320
aI-400
aI-310
aI-400
aI-300
aI-400
aI-290
aI-400
aI-280
aI-400
aI-270
aI-400
aI-260
aI-400
aI-250
aI-400
aI-240
aI-400
aI-230
aI-400
aI-220
aI-400
aI-210
aI-400
aI-200
aI-400
aI-190
aI-400
aI-180
aI-400
aI-170
aI-400
aI-160
aI-400
aI-150
aI-400
aI-140
aI-400
aI-130
aI-400
aI-120
aI-400
aI-110
aI-400
aI-100
aI-400
aI-90
aI-400
aI-80
aI-400
aI-70
aI-400
aI-60
aI-400
aI-50
aI-400
aI-40
aI-400
aI-30
aI-400
aI-20
aI-400
aI-10
aI-400
aI0
aI-400
aI10
aI-400
aI20
aI-400
aI30
aI-400
aI40
aI-400
aI50
aI-400
aI60
aI-400
aI70
aI-400
aI80
aI-400
aI90
aI-400
aI100
aI-400
aI110
aI-400
aI120
aI-400
aI130
aI-400
aI140
aI-400
aI150
aI-400
aI160
aI-400
aI170
aI-400
aI180
aI-400
aI190
aI-400
aI200
aI-400
aI210
aI-400
aI220
aI-400
aI230
aI-400
aI240
aI-400
aI250
aI-400
aI260
aI-400
aI270
aI-400
aI280
aI-400
aI290
aI-400
aI300
aI-400
aI310
aI-400
aI320
aI-400
aI330
aI-400
aI340
aI-400
aI350
aI-400
aI360
aI-400
aI370
aI-400
aI380
aI-400
aI390
aI-400
aI400
aI-400
aI410
aI-400
aI420
aI-400
aI430
aI-400
aI440
aI-400
aI450
aI-400
aI460
aI-400
aI470
aI-400
aI480
aI-400
aI490
aI-400
aI500
aI-400
aI510
aI-400
aI520
aI-400
aI530
aI-400
aI540
aI-400
aI550
aI-400
aI560
aI-400
aI570
aI-400
aI580
aI-400
aI590
aI-400
aI600
aI-400
aI610
aI-400
aI620
aI-400
aI630
aI-400
aI640
aI-400
aI650
aI-400
aI660
aI-400
aI670
aI-400
aI680
aI-400
aI690
aI-300
aI-700
aI-300
aI-690
aI-300
aI-680
aI-300
aI-670
aI-300
aI-660
aI-300
aI-650
aI-300
aI-640
aI-300
aI-630
aI-300
aI-620
aI-300
aI-610
aI-300
aI-600
aI-300
aI-590
aI-300
aI-580
aI-300
aI-570
aI-300
aI-560
aI-300
aI-550
aI-300
aI-540
aI-300
aI-530
aI-300
aI-520
aI-300
aI-510
aI-300
aI-500
aI-300
aI-490
aI-300
aI-480
aI-300
aI-470
aI-300
aI-460
aI-300
aI-450
aI-300
aI-440
aI-300
aI-430
aI-300
aI-420
aI-300
aI-410
aI-300
aI-400
aI-300
aI-390
aI-300
aI-380
aI-300
aI-370
aI-300
aI-360
aI-300
aI-350
aI-300
aI-340
aI-300
aI-330
aI-300
aI-320
aI-300
aI-310
aI-300
aI-300
aI-300
aI-290
aI-300
aI-280
aI-300
aI-270
aI-300
aI-260
aI-300
aI-250
aI-300
aI-240
aI-300
aI-230
aI-300
aI-220
aI-300
aI-210
aI-300
aI-200
aI-300
aI-190
aI-300
aI-180
aI-300
aI-170
aI-300
aI-160
aI-300
aI-150
aI-300
aI-140
aI-300
aI-130
aI-300
aI-120
aI-300
aI-110
aI-300
aI-100
aI-300
aI-90
aI-300
aI-80
aI-300
aI-70
aI-300
aI-60
aI-300
aI-50
aI-300
aI-40
aI-300
aI-30
aI-300
aI-20
aI-300
aI-10
aI-300
aI0
aI-300
aI10
aI-300
aI20
aI-300
aI30
aI-300
aI40
aI-300
aI50
aI-300
aI60
aI-300
aI70
aI-300
aI80
aI-300
aI90
aI-300
aI100
aI-300
aI110
aI-300
aI120
aI-300
aI130
aI-300
aI140
aI-300
aI150
aI-300
aI160
aI-300
aI170
aI-300
aI180
aI-300
aI190
aI-300
aI200
aI-300
aI210
aI-300
aI220
aI-300
aI230
aI-300
aI240
aI-300
aI250
aI-300
aI260
aI-300
aI270
aI-300
aI280
aI-300
aI290
aI-300
aI300
aI-300
aI310
aI-300
aI320
aI-300
aI330
aI-300
aI340
aI-300
aI350
aI-300
aI360
aI-300
aI370
aI-300
aI380
aI-300
aI390
aI-300
aI400
aI-300
aI410
aI-300
aI420
aI-300
aI430
aI-300
aI440
aI-300
aI450
aI-300
aI460
aI-300
aI470
aI-300
aI480
aI-300
aI490
aI-300
aI500
aI-300
aI510
aI-300
aI520
aI-300
aI530
aI-300
aI540
aI-300
aI550
aI-300
aI560
aI-300
aI570
aI-300
aI580
aI-300
aI590
aI-300
aI600
aI-300
aI610
aI-300
aI620
aI-300
aI630
aI-300
aI640
aI-300
aI650
aI-300
aI660
aI-300
aI670
aI-300
aI680
aI-300
aI690
aI-200
aI-700
aI-200
aI-690
aI-200
aI-680
aI-200
aI-670
aI-200
aI-660
aI-200
aI-650
aI-200
aI-640
aI-200
aI-630
aI-200
aI-620
aI-200
aI-610
aI-200
aI-600
aI-200
aI-590
aI-200
aI-580
aI-200
aI-570
aI-200
aI-560
aI-200
aI-550
aI-200
aI-540
aI-200
aI-530
aI-200
aI-520
aI-200
aI-510
aI-200
aI-500
aI-200
aI-490
aI-200
aI-480
aI-200
aI-470
aI-200
aI-460
aI-200
aI-450
aI-200
aI-440
aI-200
aI-430
aI-200
aI-420
aI-200
aI-410
aI-200
aI-400
aI-200
aI-390
aI-200
aI-380
aI-200
aI-370
aI-200
aI-360
aI-200
aI-350
aI-200
aI-340
aI-200
aI-330
aI-200
aI-320
aI-200
aI-310
aI-200
aI-300
aI-200
aI-290
aI-200
aI-280
aI-200
aI-270
aI-200
aI-260
aI-200
aI-250
aI-200
aI-240
aI-200
aI-230
aI-200
aI-220
aI-200
aI-210
aI-200
aI-200
aI-200
aI-190
aI-200
aI-180
aI-200
aI-170
aI-200
aI-160
aI-200
aI-150
aI-200
aI-140
aI-200
aI-130
aI-200
aI-120
aI-200
aI-110
aI-200
aI-100
aI-200
aI-90
aI-200
aI-80
aI-200
aI-70
aI-200
aI-60
aI-200
aI-50
aI-200
aI-40
aI-200
aI-30
aI-200
aI-20
aI-200
aI-10
aI-200
aI0
aI-200
aI10
aI-200
aI20
aI-200
aI30
aI-200
aI40
aI-200
aI50
aI-200
aI60
aI-200
aI70
aI-200
aI80
aI-200
aI90
aI-200
aI100
aI-200
aI110
aI-200
aI120
aI-200
aI130
aI-200
aI140
aI-200
aI150
aI-200
aI160
aI-200
aI170
aI-200
aI180
aI-200
aI190
aI-200
aI200
aI-200
aI210
aI-200
aI220
aI-200
aI230
aI-200
aI240
aI-200
aI250
aI-200
aI260
aI-200
aI270
aI-200
aI280
aI-200
aI290
aI-200
aI300
aI-200
aI310
aI-200
aI320
aI-200
aI330
aI-200
aI340
aI-200
aI350
aI-200
aI360
aI-200
aI370
aI-200
aI380
aI-200
aI390
aI-200
aI400
aI-200
aI410
aI-200
aI420
aI-200
aI430
aI-200
aI440
aI-200
aI450
aI-200
aI460
aI-200
aI470
aI-200
aI480
aI-200
aI490
aI-200
aI500
aI-200
aI510
aI-200
aI520
aI-200
aI530
aI-200
aI540
aI-200
aI550
aI-200
aI560
aI-200
aI570
aI-200
aI580
aI-200
aI590
aI-200
aI600
aI-200
aI610
aI-200
aI620
aI-200
aI630
aI-200
aI640
aI-200
aI650
aI-200
aI660
aI-200
aI670
aI-200
aI680
aI-200
aI690
aI-100
aI-700
aI-100
aI-690
aI-100
aI-680
aI-100
aI-670
aI-100
aI-660
aI-100
aI-650
aI-100
aI-640
aI-100
aI-630
aI-100
aI-620
aI-100
aI-610
aI-100
aI-600
aI-100
aI-590
aI-100
aI-580
aI-100
aI-570
aI-100
aI-560
aI-100
aI-550
aI-100
aI-540
aI-100
aI-530
aI-100
aI-520
aI-100
aI-510
aI-100
aI-500
aI-100
aI-490
aI-100
aI-480
aI-100
aI-470
aI-100
aI-460
aI-100
aI-450
aI-100
aI-440
aI-100
aI-430
aI-100
aI-420
aI-100
aI-410
aI-100
aI-400
aI-100
aI-390
aI-100
aI-380
aI-100
aI-370
aI-100
aI-360
aI-100
aI-350
aI-100
aI-340
aI-100
aI-330
aI-100
aI-320
aI-100
aI-310
aI-100
aI-300
aI-100
aI-290
aI-100
aI-280
aI-100
aI-270
aI-100
aI-260
aI-100
aI-250
aI-100
aI-240
aI-100
aI-230
aI-100
aI-220
aI-100
aI-210
aI-100
aI-200
aI-100
aI-190
aI-100
aI-180
aI-100
aI-170
aI-100
aI-160
aI-100
aI-150
aI-100
aI-140
aI-100
aI-130
aI-100
aI-120
aI-100
aI-110
aI-100
aI-100
aI-100
aI-90
aI-100
aI-80
aI-100
aI-70
aI-100
aI-60
aI-100
aI-50
aI-100
aI-40
aI-100
aI-30
aI-100
aI-20
aI-100
aI-10
aI-100
aI0
aI-100
aI10
aI-100
aI20
aI-100
aI30
aI-100
aI40
aI-100
aI50
aI-100
aI60
aI-100
aI70
aI-100
aI80
aI-100
aI90
aI-100
aI100
aI-100
aI110
aI-100
aI120
aI-100
aI130
aI-100
aI140
aI-100
aI150
aI-100
aI160
aI-100
aI170
aI-100
aI180
aI-100
aI190
aI-100
aI200
aI-100
aI210
aI-100
aI220
aI-100
aI230
aI-100
aI240
aI-100
aI250
aI-100
aI260
aI-100
aI270
aI-100
aI280
aI-100
aI290
aI-100
aI300
aI-100
aI310
aI-100
aI320
aI-100
aI330
aI-100
aI340
aI-100
aI350
aI-100
aI360
aI-100
aI370
aI-100
aI380
aI-100
aI390
aI-100
aI400
aI-100
aI410
aI-100
aI420
aI-100
aI430
aI-100
aI440
aI-100
aI450
aI-100
aI460
aI-100
aI470
aI-100
aI480
aI-100
aI490
aI-100
aI500
aI-100
aI510
aI-100
aI520
aI-100
aI530
aI-100
aI540
aI-100
aI550
aI-100
aI560
aI-100
aI570
aI-100
aI580
aI-100
aI590
aI-100
aI600
aI-100
aI610
aI-100
aI620
aI-100
aI630
aI-100
aI640
aI-100
aI650
aI-100
aI660
aI-100
aI670
aI-100
aI680
aI-100
aI690
aI0
aI-700
aI0
aI-690
aI0
aI-680
aI0
aI-670
aI0
aI-660
aI0
aI-650
aI0
aI-640
aI0
aI-630
aI0
aI-620
aI0
aI-610
aI0
aI-600
aI0
aI-590
aI0
aI-580
aI0
aI-570
aI0
aI-560
aI0
aI-550
aI0
aI-540
aI0
aI-530
aI0
aI-520
aI0
aI-510
aI0
aI-500
aI0
aI-490
aI0
aI-480
aI0
aI-470
aI0
aI-460
aI0
aI-450
aI0
aI-440
aI0
aI-430
aI0
aI-420
aI0
aI-410
aI0
aI-400
aI0
aI-390
aI0
aI-380
aI0
aI-370
aI0
aI-360
aI0
aI-350
aI0
aI-340
aI0
aI-330
aI0
aI-320
aI0
aI-310
aI0
aI-300
aI0
aI-290
aI0
aI-280
aI0
aI-270
aI0
aI-260
aI0
aI-250
aI0
aI-240
aI0
aI-230
aI0
aI-220
aI0
aI-210
aI0
aI-200
aI0
aI-190
aI0
aI-180
aI0
aI-170
aI0
aI-160
aI0
aI-150
aI0
aI-140
aI0
aI-130
aI0
aI-120
aI0
aI-110
aI0
aI-100
aI0
aI-90
aI0
aI-80
aI0
aI-70
aI0
aI-60
aI0
aI-50
aI0
aI-40
aI0
aI-30
aI0
aI-20
aI0
aI-10
aI0
aI0
aI0
aI10
aI0
aI20
aI0
aI30
aI0
aI40
aI0
aI50
aI0
aI60
aI0
aI70
aI0
aI80
aI0
aI90
aI0
aI100
aI0
aI110
aI0
aI120
aI0
aI130
aI0
aI140
aI0
aI150
aI0
aI160
aI0
aI170
aI0
aI180
aI0
aI190
aI0
aI200
aI0
aI210
aI0
aI220
aI0
aI230
aI0
aI240
aI0
aI250
aI0
aI260
aI0
aI270
aI0
aI280
aI0
aI290
aI0
aI300
aI0
aI310
aI0
aI320
aI0
aI330
aI0
aI340
aI0
aI350
aI0
aI360
aI0
aI370
aI0
aI380
aI0
aI390
aI0
aI400
aI0
aI410
aI0
aI420
aI0
aI430
aI0
aI440
aI0
aI450
aI0
aI460
aI0
aI470
aI0
aI480
aI0
aI490
aI0
aI500
aI0
aI510
aI0
aI520
aI0
aI530
aI0
aI540
aI0
aI550
aI0
aI560
aI0
aI570
aI0
aI580
aI0
aI590
aI0
aI600
aI0
aI610
aI0
aI620
aI0
aI630
aI0
aI640
aI0
aI650
aI0
aI660
aI0
aI670
aI0
aI680
aI0
aI690
aI100
aI-700
aI100
aI-690
aI100
aI-680
aI100
aI-670
aI100
aI-660
aI100
aI-650
aI100
aI-640
aI100
aI-630
aI100
aI-620
aI100
aI-610
aI100
aI-600
aI100
aI-590
aI100
aI-580
aI100
aI-570
aI100
aI-560
aI100
aI-550
aI100
aI-540
aI100
aI-530
aI100
aI-520
aI100
aI-510
aI100
aI-500
aI100
aI-490
aI100
aI-480
aI100
aI-470
aI100
aI-460
aI100
aI-450
aI100
aI-440
aI100
aI-430
aI100
aI-420
aI100
aI-410
aI100
aI-400
aI100
aI-390
aI100
aI-380
aI100
aI-370
aI100
aI-360
aI100
aI-350
aI100
aI-340
aI100
aI-330
aI100
aI-320
aI100
aI-310
aI100
aI-300
aI100
aI-290
aI100
aI-280
aI100
aI-270
aI100
aI-260
aI100
aI-250
aI100
aI-240
aI100
aI-230
aI100
aI-220
aI100
aI-210
aI100
aI-200
aI100
aI-190
aI100
aI-180
aI100
aI-170
aI100
aI-160
aI100
aI-150
aI100
aI-140
aI100
aI-130
aI100
aI-120
aI100
aI-110
aI100
aI-100
aI100
aI-90
aI100
aI-80
aI100
aI-70
aI100
aI-60
aI100
aI-50
aI100
aI-40
aI100
aI-30
aI100
aI-20
aI100
aI-10
aI100
aI0
aI100
aI10
aI100
aI20
aI100
aI30
aI100
aI40
aI100
aI50
aI100
aI60
aI100
aI70
aI100
aI80
aI100
aI90
aI100
aI100
aI100
aI110
aI100
aI120
aI100
aI130
aI100
aI140
aI100
aI150
aI100
aI160
aI100
aI170
aI100
aI180
aI100
aI190
aI100
aI200
aI100
aI210
aI100
aI220
aI100
aI230
aI100
aI240
aI100
aI250
aI100
aI260
aI100
aI270
aI100
aI280
aI100
aI290
aI100
aI300
aI100
aI310
aI100
aI320
aI100
aI330
aI100
aI340
aI100
aI350
aI100
aI360
aI100
aI370
aI100
aI380
aI100
aI390
aI100
aI400
aI100
aI410
aI100
aI420
aI100
aI430
aI100
aI440
aI100
aI450
aI100
aI460
aI100
aI470
aI100
aI480
aI100
aI490
aI100
aI500
aI100
aI510
aI100
aI520
aI100
aI530
aI100
aI540
aI100
aI550
aI100
aI560
aI100
aI570
aI100
aI580
aI100
aI590
aI100
aI600
aI100
aI610
aI100
aI620
aI100
aI630
aI100
aI640
aI100
aI650
aI100
aI660
aI100
aI670
aI100
aI680
aI100
aI690
aI200
aI-700
aI200
aI-690
aI200
aI-680
aI200
aI-670
aI200
aI-660
aI200
aI-650
aI200
aI-640
aI200
aI-630
aI200
aI-620
aI200
aI-610
aI200
aI-600
aI200
aI-590
aI200
aI-580
aI200
aI-570
aI200
aI-560
aI200
aI-550
aI200
aI-540
aI200
aI-530
aI200
aI-520
aI200
aI-510
aI200
aI-500
aI200
aI-490
aI200
aI-480
aI200
aI-470
aI200
aI-460
aI200
aI-450
aI200
aI-440
aI200
aI-430
aI200
aI-420
aI200
aI-410
aI200
aI-400
aI200
aI-390
aI200
aI-380
aI200
aI-370
aI200
aI-360
aI200
aI-350
aI200
aI-340
aI200
aI-330
aI200
aI-320
aI200
aI-310
aI200
aI-300
aI200
aI-290
aI200
aI-280
aI200
aI-270
aI200
aI-260
aI200
aI-250
aI200
aI-240
aI200
aI-230
aI200
aI-220
aI200
aI-210
aI200
aI-200
aI200
aI-190
aI200
aI-180
aI200
aI-170
aI200
aI-160
aI200
aI-150
aI200
aI-140
aI200
aI-130
aI200
aI-120
aI200
aI-110
aI200
aI-100
aI200
aI-90
aI200
aI-80
aI200
aI-70
aI200
aI-60
aI200
aI-50
aI200
aI-40
aI200
aI-30
aI200
aI-20
aI200
aI-10
aI200
aI0
aI200
aI10
aI200
aI20
aI200
aI30
aI200
aI40
aI200
aI50
aI200
aI60
aI200
aI70
aI200
aI80
aI200
aI90
aI200
aI100
aI200
aI110
aI200
aI120
aI200
aI130
aI200
aI140
aI200
aI150
aI200
aI160
aI200
aI170
aI200
aI180
aI200
aI190
aI200
aI200
aI200
aI210
aI200
aI220
aI200
aI230
aI200
aI240
aI200
aI250
aI200
aI260
aI200
aI270
aI200
aI280
aI200
aI290
aI200
aI300
aI200
aI310
aI200
aI320
aI200
aI330
aI200
aI340
aI200
aI350
aI200
aI360
aI200
aI370
aI200
aI380
aI200
aI390
aI200
aI400
aI200
aI410
aI200
aI420
aI200
aI430
aI200
aI440
aI200
aI450
aI200
aI460
aI200
aI470
aI200
aI480
aI200
aI490
aI200
aI500
aI200
aI510
aI200
aI520
aI200
aI530
aI200
aI540
aI200
aI550
aI200
aI560
aI200
aI570
aI200
aI580
aI200
aI590
aI200
aI600
aI200
aI610
aI200
aI620
aI200
aI630
aI200
aI640
aI200
aI650
aI200
aI660
aI200
aI670
aI200
aI680
aI200
aI690
aI300
aI-700
aI300
aI-690
aI300
aI-680
aI300
aI-670
aI300
aI-660
aI300
aI-650
aI300
aI-640
aI300
aI-630
aI300
aI-620
aI300
aI-610
aI300
aI-600
aI300
aI-590
aI300
aI-580
aI300
aI-570
aI300
aI-560
aI300
aI-550
aI300
aI-540
aI300
aI-530
aI300
aI-520
aI300
aI-510
aI300
aI-500
aI300
aI-490
aI300
aI-480
aI300
aI-470
aI300
aI-460
aI300
aI-450
aI300
aI-440
aI300
aI-430
aI300
aI-420
aI300
aI-410
aI300
aI-400
aI300
aI-390
aI300
aI-380
aI300
aI-370
aI300
aI-360
aI300
aI-350
aI300
aI-340
aI300
aI-330
aI300
aI-320
aI300
aI-310
aI300
aI-300
aI300
aI-290
aI300
aI-280
aI300
aI-270
aI300
aI-260
aI300
aI-250
aI300
aI-240
aI300
aI-230
aI300
aI-220
aI300
aI-210
aI300
aI-200
aI300
aI-190
aI300
aI-180
aI300
aI-170
aI300
aI-160
aI300
aI-150
aI300
aI-140
aI300
aI-130
aI300
aI-120
aI300
aI-110
aI300
aI-100
aI300
aI-90
aI300
aI-80
aI300
aI-70
aI300
aI-60
aI300
aI-50
aI300
aI-40
aI300
aI-30
aI300
aI-20
aI300
aI-10
aI300
aI0
aI300
aI10
aI300
aI20
aI300
aI30
aI300
aI40
aI300
aI50
aI300
aI60
aI300
aI70
aI300
aI80
aI300
aI90
aI300
aI100
aI300
aI110
aI300
aI120
aI300
aI130
aI300
aI140
aI300
aI150
aI300
aI160
aI300
aI170
aI300
aI180
aI300
aI190
aI300
aI200
aI300
aI210
aI300
aI220
aI300
aI230
aI300
aI240
aI300
aI250
aI300
aI260
aI300
aI270
aI300
aI280
aI300
aI290
aI300
aI300
aI300
aI310
aI300
aI320
aI300
aI330
aI300
aI340
aI300
aI350
aI300
aI360
aI300
aI370
aI300
aI380
aI300
aI390
aI300
aI400
aI300
aI410
aI300
aI420
aI300
aI430
aI300
aI440
aI300
aI450
aI300
aI460
aI300
aI470
aI300
aI480
aI300
aI490
aI300
aI500
aI300
aI510
aI300
aI520
aI300
aI530
aI300
aI540
aI300
aI550
aI300
aI560
aI300
aI570
aI300
aI580
aI300
aI590
aI300
aI600
aI300
aI610
aI300
aI620
aI300
aI630
aI300
aI640
aI300
aI650
aI300
aI660
aI300
aI670
aI300
aI680
aI300
aI690
aI400
aI-700
aI400
aI-690
aI400
aI-680
aI400
aI-670
aI400
aI-660
aI400
aI-650
aI400
aI-640
aI400
aI-630
aI400
aI-620
aI400
aI-610
aI400
aI-600
aI400
aI-590
aI400
aI-580
aI400
aI-570
aI400
aI-560
aI400
aI-550
aI400
aI-540
aI400
aI-530
aI400
aI-520
aI400
aI-510
aI400
aI-500
aI400
aI-490
aI400
aI-480
aI400
aI-470
aI400
aI-460
aI400
aI-450
aI400
aI-440
aI400
aI-430
aI400
aI-420
aI400
aI-410
aI400
aI-400
aI400
aI-390
aI400
aI-380
aI400
aI-370
aI400
aI-360
aI400
aI-350
aI400
aI-340
aI400
aI-330
aI400
aI-320
aI400
aI-310
aI400
aI-300
aI400
aI-290
aI400
aI-280
aI400
aI-270
aI400
aI-260
aI400
aI-250
aI400
aI-240
aI400
aI-230
aI400
aI-220
aI400
aI-210
aI400
aI-200
aI400
aI-190
aI400
aI-180
aI400
aI-170
aI400
aI-160
aI400
aI-150
aI400
aI-140
aI400
aI-130
aI400
aI-120
aI400
aI-110
aI400
aI-100
aI400
aI-90
aI400
aI-80
aI400
aI-70
aI400
aI-60
aI400
aI-50
aI400
aI-40
aI400
aI-30
aI400
aI-20
aI400
aI-10
aI400
aI0
aI400
aI10
aI400
aI20
aI400
aI30
aI400
aI40
aI400
aI50
aI400
aI60
aI400
aI70
aI400
aI80
aI400
aI90
aI400
aI100
aI400
aI110
aI400
aI120
aI400
aI130
aI400
aI140
aI400
aI150
aI400
aI160
aI400
aI170
aI400
aI180
aI400
aI190
aI400
aI200
aI400
aI210
aI400
aI220
aI400
aI230
aI400
aI240
aI400
aI250
aI400
aI260
aI400
aI270
aI400
aI280
aI400
aI290
aI400
aI300
aI400
aI310
aI400
aI320
aI400
aI330
aI400
aI340
aI400
aI350
aI400
aI360
aI400
aI370
aI400
aI380
aI400
aI390
aI400
aI400
aI400
aI410
aI400
aI420
aI400
aI430
aI400
aI440
aI400
aI450
aI400
aI460
aI400
aI470
aI400
aI480
aI400
aI490
aI400
aI500
aI400
aI510
aI400
aI520
aI400
aI530
aI400
aI540
aI400
aI550
aI400
aI560
aI400
aI570
aI400
aI580
aI400
aI590
aI400
aI600
aI400
aI610
aI400
aI620
aI400
aI630
aI400
aI640
aI400
aI650
aI400
aI660
aI400
aI670
aI400
aI680
aI400
aI690
aI500
aI-700
aI500
aI-690
aI500
aI-680
aI500
aI-670
aI500
aI-660
aI500
aI-650
aI500
aI-640
aI500
aI-630
aI500
aI-620
aI500
aI-610
aI500
aI-600
aI500
aI-590
aI500
aI-580
aI500
aI-570
aI500
aI-560
aI500
aI-550
aI500
aI-540
aI500
aI-530
aI500
aI-520
aI500
aI-510
aI500
aI-500
aI500
aI-490
aI500
aI-480
aI500
aI-470
aI500
aI-460
aI500
aI-450
aI500
aI-440
aI500
aI-430
aI500
aI-420
aI500
aI-410
aI500
aI-400
aI500
aI-390
aI500
aI-380
aI500
aI-370
aI500
aI-360
aI500
aI-350
aI500
aI-340
aI500
aI-330
aI500
aI-320
aI500
aI-310
aI500
aI-300
aI500
aI-290
aI500
aI-280
aI500
aI-270
aI500
aI-260
aI500
aI-250
aI500
aI-240
aI500
aI-230
aI500
aI-220
aI500
aI-210
aI500
aI-200
aI500
aI-190
aI500
aI-180
aI500
aI-170
aI500
aI-160
aI500
aI-150
aI500
aI-140
aI500
aI-130
aI500
aI-120
aI500
aI-110
aI500
aI-100
aI500
aI-90
aI500
aI-80
aI500
aI-70
aI500
aI-60
aI500
aI-50
aI500
aI-40
aI500
aI-30
aI500
aI-20
aI500
aI-10
aI500
aI0
aI500
aI10
aI500
aI20
aI500
aI30
aI500
aI40
aI500
aI50
aI500
aI60
aI500
aI70
aI500
aI80
aI500
aI90
aI500
aI100
aI500
aI110
aI500
aI120
aI500
aI130
aI500
aI140
aI500
aI150
aI500
aI160
aI500
aI170
aI500
aI180
aI500
aI190
aI500
aI200
aI500
aI210
aI500
aI220
aI500
aI230
aI500
aI240
aI500
aI250
aI500
aI260
aI500
aI270
aI500
aI280
aI500
aI290
aI500
aI300
aI500
aI310
aI500
aI320
aI500
aI330
aI500
aI340
aI500
aI350
aI500
aI360
aI500
aI370
aI500
aI380
aI500
aI390
aI500
aI400
aI500
aI410
aI500
aI420
aI500
aI430
aI500
aI440
aI500
aI450
aI500
aI460
aI500
aI470
aI500
aI480
aI500
aI490
aI500
aI500
aI500
aI510
aI500
aI520
aI500
aI530
aI500
aI540
aI500
aI550
aI500
aI560
aI500
aI570
aI500
aI580
aI500
aI590
aI500
aI600
aI500
aI610
aI500
aI620
aI500
aI630
aI500
aI640
aI500
aI650
aI500
aI660
aI500
aI670
aI500
aI680
aI500
aI690
aI600
aI-700
aI600
aI-690
aI600
aI-680
aI600
aI-670
aI600
aI-660
aI600
aI-650
aI600
aI-640
aI600
aI-630
aI600
aI-620
aI600
aI-610
aI600
aI-600
aI600
aI-590
aI600
aI-580
aI600
aI-570
aI600
aI-560
aI600
aI-550
aI600
aI-540
aI600
aI-530
aI600
aI-520
aI600
aI-510
aI600
aI-500
aI600
aI-490
aI600
aI-480
aI600
aI-470
aI600
aI-460
aI600
aI-450
aI600
aI-440
aI600
aI-430
aI600
aI-420
aI600
aI-410
aI600
aI-400
aI600
aI-390
aI600
aI-380
aI600
aI-370
aI600
aI-360
aI600
aI-350
aI600
aI-340
aI600
aI-330
aI600
aI-320
aI600
aI-310
aI600
aI-300
aI600
aI-290
aI600
aI-280
aI600
aI-270
aI600
aI-260
aI600
aI-250
aI600
aI-240
aI600
aI-230
aI600
aI-220
aI600
aI-210
aI600
aI-200
aI600
aI-190
aI600
aI-180
aI600
aI-170
aI600
aI-160
aI600
aI-150
aI600
aI-140
aI600
aI-130
aI600
aI-120
aI600
aI-110
aI600
aI-100
aI600
aI-90
aI600
aI-80
aI600
aI-70
aI600
aI-60
aI600
aI-50
aI600
aI-40
aI600
aI-30
aI600
aI-20
aI600
aI-10
aI600
aI0
aI600
aI10
aI600
aI20
aI600
aI30
aI600
aI40
aI600
aI50
aI600
aI60
aI600
aI70
aI600
aI80
aI600
aI90
aI600
aI100
aI600
aI110
aI600
aI120
aI600
aI130
aI600
aI140
aI600
aI150
aI600
aI160
aI600
aI170
aI600
aI180
aI600
aI190
aI600
aI200
aI600
aI210
aI600
aI220
aI600
aI230
aI600
aI240
aI600
aI250
aI600
aI260
aI600
aI270
aI600
aI280
aI600
aI290
aI600
aI300
aI600
aI310
aI600
aI320
aI600
aI330
aI600
aI340
aI600
aI350
aI600
aI360
aI600
aI370
aI600
aI380
aI600
aI390
aI600
aI400
aI600
aI410
aI600
aI420
aI600
aI430
aI600
aI440
aI600
aI450
aI600
aI460
aI600
aI470
aI600
aI480
aI600
aI490
aI600
aI500
aI600
aI510
aI600
aI520
aI600
aI530
aI600
aI540
aI600
aI550
aI600
aI560
aI600
aI570
aI600
aI580
aI600
aI590
aI600
aI600
aI600
aI610
aI600
aI620
aI600
aI630
aI600
aI640
aI600
aI650
aI600
aI660
aI600
aI670
aI600
aI680
aI600
aI690
aI700
aI-700
aI700
aI-690
aI700
aI-680
aI700
aI-670
aI700
aI-660
aI700
aI-650
aI700
aI-640
aI700
aI-630
aI700
aI-620
aI700
aI-610
aI700
aI-600
aI700
aI-590
aI700
aI-580
aI700
aI-570
aI700
aI-560
aI700
aI-550
aI700
aI-540
aI700
aI-530
aI700
aI-520
aI700
aI-510
aI700
aI-500
aI700
aI-490
aI700
aI-480
aI700
aI-470
aI700
aI-460
aI700
aI-450
aI700
aI-440
aI700
aI-430
aI700
aI-420
aI700
aI-410
aI700
aI-400
aI700
aI-390
aI700
aI-380
aI700
aI-370
aI700
aI-360
aI700
aI-350
aI700
aI-340
aI700
aI-330
aI700
aI-320
aI700
aI-310
aI700
aI-300
aI700
aI-290
aI700
aI-280
aI700
aI-270
aI700
aI-260
aI700
aI-250
aI700
aI-240
aI700
aI-230
aI700
aI-220
aI700
aI-210
aI700
aI-200
aI700
aI-190
aI700
aI-180
aI700
aI-170
aI700
aI-160
aI700
aI-150
aI700
aI-140
aI700
aI-130
aI700
aI-120
aI700
aI-110
aI700
aI-100
aI700
aI-90
aI700
aI-80
aI700
aI-70
aI700
aI-60
aI700
aI-50
aI700
aI-40
aI700
aI-30
aI700
aI-20
aI700
aI-10
aI700
aI0
aI700
aI10
aI700
aI20
aI700
aI30
aI700
aI40
aI700
aI50
aI700
aI60
aI700
aI70
aI700
aI80
aI700
aI90
aI700
aI100
aI700
aI110
aI700
aI120
aI700
aI130
aI700
aI140
aI700
aI150
aI700
aI160
aI700
aI170
aI700
aI180
aI700
aI190
aI700
aI200
aI700
aI210
aI700
aI220
aI700
aI230
aI700
aI240
aI700
aI250
aI700
aI260
aI700
aI270
aI700
aI280
aI700
aI290
aI700
aI300
aI700
aI310
aI700
aI320
aI700
aI330
aI700
aI340
aI700
aI350
aI700
aI360
aI700
aI370
aI700
aI380
aI700
aI390
aI700
aI400
aI700
aI410
aI700
aI420
aI700
aI430
aI700
aI440
aI700
aI450
aI700
aI460
aI700
aI470
aI700
aI480
aI700
aI490
aI700
aI500
aI700
aI510
aI700
aI520
aI700
aI530
aI700
aI540
aI700
aI550
aI700
aI560
aI700
aI570
aI700
aI580
aI700
aI590
aI700
aI600
aI700
aI610
aI700
aI620
aI700
aI630
aI700
aI640
aI700
aI650
aI700
aI660
aI700
aI670
aI700
aI680
aI700
aI690
aI800
aI-700
aI800
aI-690
aI800
aI-680
aI800
aI-670
aI800
aI-660
aI800
aI-650
aI800
aI-640
aI800
aI-630
aI800
aI-620
aI800
aI-610
aI800
aI-600
aI800
aI-590
aI800
aI-580
aI800
aI-570
aI800
aI-560
aI800
aI-550
aI800
aI-540
aI800
aI-530
aI800
aI-520
aI800
aI-510
aI800
aI-500
aI800
aI-490
aI800
aI-480
aI800
aI-470
aI800
aI-460
aI800
aI-450
aI800
aI-440
aI800
aI-430
aI800
aI-420
aI800
aI-410
aI800
aI-400
aI800
aI-390
aI800
aI-380
aI800
aI-370
aI800
aI-360
aI800
aI-350
aI800
aI-340
aI800
aI-330
aI800
aI-320
aI800
aI-310
aI800
aI-300
aI800
aI-290
aI800
aI-280
aI800
aI-270
aI800
aI-260
aI800
aI-250
aI800
aI-240
aI800
aI-230
aI800
aI-220
aI800
aI-210
aI800
aI-200
aI800
aI-190
aI800
aI-180
aI800
aI-170
aI800
aI-160
aI800
aI-150
aI800
aI-140
aI800
aI-130
aI800
aI-120
aI800
aI-110
aI800
aI-100
aI800
aI-90
aI800
aI-80
aI800
aI-70
aI800
aI-60
aI800
aI-50
aI800
aI-40
aI800
aI-30
aI800
aI-20
aI800
aI-10
aI800
aI0
aI800
aI10
aI800
aI20
aI800
aI30
aI800
aI40
aI800
aI50
aI800
aI60
aI800
aI70
aI800
aI80
aI800
aI90
aI800
aI100
aI800
aI110
aI800
aI120
aI800
aI130
aI800
aI140
aI800
aI150
aI800
aI160
aI800
aI170
aI800
aI180
aI800
aI190
aI800
aI200
aI800
aI210
aI800
aI220
aI800
aI230
aI800
aI240
aI800
aI250
aI800
aI260
aI800
aI270
aI800
aI280
aI800
aI290
aI800
aI300
aI800
aI310
aI800
aI320
aI800
aI330
aI800
aI340
aI800
aI350
aI800
aI360
aI800
aI370
aI800
aI380
aI800
aI390
aI800
aI400
aI800
aI410
aI800
aI420
aI800
aI430
aI800
aI440
aI800
aI450
aI800
aI460
aI800
aI470
aI800
aI480
aI800
aI490
aI800
aI500
aI800
aI510
aI800
aI520
aI800
aI530
aI800
aI540
aI800
aI550
aI800
aI560
aI800
aI570
aI800
aI580
aI800
aI590
aI800
aI600
aI800
aI610
aI800
aI620
aI800
aI630
aI800
aI640
aI800
aI650
aI800
aI660
aI800
aI670
aI800
aI680
aI800
aI690
aI900
aI-700
aI900
aI-690
aI900
aI-680
aI900
aI-670
aI900
aI-660
aI900
aI-650
aI900
aI-640
aI900
aI-630
aI900
aI-620
aI900
aI-610
aI900
aI-600
aI900
aI-590
aI900
aI-580
aI900
aI-570
aI900
aI-560
aI900
aI-550
aI900
aI-540
aI900
aI-530
aI900
aI-520
aI900
aI-510
aI900
aI-500
aI900
aI-490
aI900
aI-480
aI900
aI-470
aI900
aI-460
aI900
aI-450
aI900
aI-440
aI900
aI-430
aI900
aI-420
aI900
aI-410
aI900
aI-400
aI900
aI-390
aI900
aI-380
aI900
aI-370
aI900
aI-360
aI900
aI-350
aI900
aI-340
aI900
aI-330
aI900
aI-320
aI900
aI-310
aI900
aI-300
aI900
aI-290
aI900
aI-280
aI900
aI-270
aI900
aI-260
aI900
aI-250
aI900
aI-240
aI900
aI-230
aI900
aI-220
aI900
aI-210
aI900
aI-200
aI900
aI-190
aI900
aI-180
aI900
aI-170
aI900
aI-160
aI900
aI-150
aI900
aI-140
aI900
aI-130
aI900
aI-120
aI900
aI-110
aI900
aI-100
aI900
aI-90
aI900
aI-80
aI900
aI-70
aI900
aI-60
aI900
aI-50
aI900
aI-40
aI900
aI-30
aI900
aI-20
aI900
aI-10
aI900
aI0
aI900
aI10
aI900
aI20
aI900
aI30
aI900
aI40
aI900
aI50
aI900
aI60
aI900
aI70
aI900
aI80
aI900
aI90
aI900
aI100
aI900
aI110
aI900
aI120
aI900
aI130
aI900
aI140
aI900
aI150
aI900
aI160
aI900
aI170
aI900
aI180
aI900
aI190
aI900
aI200
aI900
aI210
aI900
aI220
aI900
aI230
aI900
aI240
aI900
aI250
aI900
aI260
aI900
aI270
aI900
aI280
aI900
aI290
aI900
aI300
aI900
aI310
aI900
aI320
aI900
aI330
aI900
aI340
aI900
aI350
aI900
aI360
aI900
aI370
aI900
aI380
aI900
aI390
aI900
aI400
aI900
aI410
aI900
aI420
aI900
aI430
aI900
aI440
aI900
aI450
aI900
aI460
aI900
aI470
aI900
aI480
aI900
aI490
aI900
aI500
aI900
aI510
aI900
aI520
aI900
aI530
aI900
aI540
aI900
aI550
aI900
aI560
aI900
aI570
aI900
aI580
aI900
aI590
aI900
aI600
aI900
aI610
aI900
aI620
aI900
aI630
aI900
aI640
aI900
aI650
aI900
aI660
aI900
aI670
aI900
aI680
aI900
aI690
aI1000
aI-700
aI1000
aI-690
aI1000
aI-680
aI1000
aI-670
aI1000
aI-660
aI1000
aI-650
aI1000
aI-640
aI1000
aI-630
aI1000
aI-620
aI1000
aI-610
aI1000
aI-600
aI1000
aI-590
aI1000
aI-580
aI1000
aI-570
aI1000
aI-560
aI1000
aI-550
aI1000
aI-540
aI1000
aI-530
aI1000
aI-520
aI1000
aI-510
aI1000
aI-500
aI1000
aI-490
aI1000
aI-480
aI1000
aI-470
aI1000
aI-460
aI1000
aI-450
aI1000
aI-440
aI1000
aI-430
aI1000
aI-420
aI1000
aI-410
aI1000
aI-400
aI1000
aI-390
aI1000
aI-380
aI1000
aI-370
aI1000
aI-360
aI1000
aI-350
aI1000
aI-340
aI1000
aI-330
aI1000
aI-320
aI1000
aI-310
aI1000
aI-300
aI1000
aI-290
aI1000
aI-280
aI1000
aI-270
aI1000
aI-260
aI1000
aI-250
aI1000
aI-240
aI1000
aI-230
aI1000
aI-220
aI1000
aI-210
aI1000
aI-200
aI1000
aI-190
aI1000
aI-180
aI1000
aI-170
aI1000
aI-160
aI1000
aI-150
aI1000
aI-140
aI1000
aI-130
aI1000
aI-120
aI1000
aI-110
aI1000
aI-100
aI1000
aI-90
aI1000
aI-80
aI1000
aI-70
aI1000
aI-60
aI1000
aI-50
aI1000
aI-40
aI1000
aI-30
aI1000
aI-20
aI1000
aI-10
aI1000
aI0
aI1000
aI10
aI1000
aI20
aI1000
aI30
aI1000
aI40
aI1000
aI50
aI1000
aI60
aI1000
aI70
aI1000
aI80
aI1000
aI90
aI1000
aI100
aI1000
aI110
aI1000
aI120
aI1000
aI130
aI1000
aI140
aI1000
aI150
aI1000
aI160
aI1000
aI170
aI1000
aI180
aI1000
aI190
aI1000
aI200
aI1000
aI210
aI1000
aI220
aI1000
aI230
aI1000
aI240
aI1000
aI250
aI1000
aI260
aI1000
aI270
aI1000
aI280
aI1000
aI290
aI1000
aI300
aI1000
aI310
aI1000
aI320
aI1000
aI330
aI1000
aI340
aI1000
aI350
aI1000
aI360
aI1000
aI370
aI1000
aI380
aI1000
aI390
aI1000
aI400
aI1000
aI410
aI1000
aI420
aI1000
aI430
aI1000
aI440
aI1000
aI450
aI1000
aI460
aI1000
aI470
aI1000
aI480
aI1000
aI490
aI1000
aI500
aI1000
aI510
aI1000
aI520
aI1000
aI530
aI1000
aI540
aI1000
aI550
aI1000
aI560
aI1000
aI570
aI1000
aI580
aI1000
aI590
aI1000
aI600
aI1000
aI610
aI1000
aI620
aI1000
aI630
aI1000
aI640
aI1000
aI650
aI1000
aI660
aI1000
aI670
aI1000
aI680
aI1000
aI690
aI1100
aI-700
aI1100
aI-690
aI1100
aI-680
aI1100
aI-670
aI1100
aI-660
aI1100
aI-650
aI1100
aI-640
aI1100
aI-630
aI1100
aI-620
aI1100
aI-610
aI1100
aI-600
aI1100
aI-590
aI1100
aI-580
aI1100
aI-570
aI1100
aI-560
aI1100
aI-550
aI1100
aI-540
aI1100
aI-530
aI1100
aI-520
aI1100
aI-510
aI1100
aI-500
aI1100
aI-490
aI1100
aI-480
aI1100
aI-470
aI1100
aI-460
aI1100
aI-450
aI1100
aI-440
aI1100
aI-430
aI1100
aI-420
aI1100
aI-410
aI1100
aI-400
aI1100
aI-390
aI1100
aI-380
aI1100
aI-370
aI1100
aI-360
aI1100
aI-350
aI1100
aI-340
aI1100
aI-330
aI1100
aI-320
aI1100
aI-310
aI1100
aI-300
aI1100
aI-290
aI1100
aI-280
aI1100
aI-270
aI1100
aI-260
aI1100
aI-250
aI1100
aI-240
aI1100
aI-230
aI1100
aI-220
aI1100
aI-210
aI1100
aI-200
aI1100
aI-190
aI1100
aI-180
aI1100
aI-170
aI1100
aI-160
aI1100
aI-150
aI1100
aI-140
aI1100
aI-130
aI1100
aI-120
aI1100
aI-110
aI1100
aI-100
aI1100
aI-90
aI1100
aI-80
aI1100
aI-70
aI1100
aI-60
aI1100
aI-50
aI1100
aI-40
aI1100
aI-30
aI1100
aI-20
aI1100
aI-10
aI1100
aI0
aI1100
aI10
aI1100
aI20
aI1100
aI30
aI1100
aI40
aI1100
aI50
aI1100
aI60
aI1100
aI70
aI1100
aI80
aI1100
aI90
aI1100
aI100
aI1100
aI110
aI1100
aI120
aI1100
aI130
aI1100
aI140
aI1100
aI150
aI1100
aI160
aI1100
aI170
aI1100
aI180
aI1100
aI190
aI1100
aI200
aI1100
aI210
aI1100
aI220
aI1100
aI230
aI1100
aI240
aI1100
aI250
aI1100
aI260
aI1100
aI270
aI1100
aI280
aI1100
aI290
aI1100
aI300
aI1100
aI310
aI1100
aI320
aI1100
aI330
aI1100
aI340
aI1100
aI350
aI1100
aI360
aI1100
aI370
aI1100
aI380
aI1100
aI390
aI1100
aI400
aI1100
aI410
aI1100
aI420
aI1100
aI430
aI1100
aI440
aI1100
aI450
aI1100
aI460
aI1100
aI470
aI1100
aI480
aI1100
aI490
aI1100
aI500
aI1100
aI510
aI1100
aI520
aI1100
aI530
aI1100
aI540
aI1100
aI550
aI1100
aI560
aI1100
aI570
aI1100
aI580
aI1100
aI590
aI1100
aI600
aI1100
aI610
aI1100
aI620
aI1100
aI630
aI1100
aI640
aI1100
aI650
aI1100
aI660
aI1100
aI670
aI1100
aI680
aI1100
aI690
aI1200
aI-700
aI1200
aI-690
aI1200
aI-680
aI1200
aI-670
aI1200
aI-660
aI1200
aI-650
aI1200
aI-640
aI1200
aI-630
aI1200
aI-620
aI1200
aI-610
aI1200
aI-600
aI1200
aI-590
aI1200
aI-580
aI1200
aI-570
aI1200
aI-560
aI1200
aI-550
aI1200
aI-540
aI1200
aI-530
aI1200
aI-520
aI1200
aI-510
aI1200
aI-500
aI1200
aI-490
aI1200
aI-480
aI1200
aI-470
aI1200
aI-460
aI1200
aI-450
aI1200
aI-440
aI1200
aI-430
aI1200
aI-420
aI1200
aI-410
aI1200
aI-400
aI1200
aI-390
aI1200
aI-380
aI1200
aI-370
aI1200
aI-360
aI1200
aI-350
aI1200
aI-340
aI1200
aI-330
aI1200
aI-320
aI1200
aI-310
aI1200
aI-300
aI1200
aI-290
aI1200
aI-280
aI1200
aI-270
aI1200
aI-260
aI1200
aI-250
aI1200
aI-240
aI1200
aI-230
aI1200
aI-220
aI1200
aI-210
aI1200
aI-200
aI1200
aI-190
aI1200
aI-180
aI1200
aI-170
aI1200
aI-160
aI1200
aI-150
aI1200
aI-140
aI1200
aI-130
aI1200
aI-120
aI1200
aI-110
aI1200
aI-100
aI1200
aI-90
aI1200
aI-80
aI1200
aI-70
aI1200
aI-60
aI1200
aI-50
aI1200
aI-40
aI1200
aI-30
aI1200
aI-20
aI1200
aI-10
aI1200
aI0
aI1200
aI10
aI1200
aI20
aI1200
aI30
aI1200
aI40
aI1200
aI50
aI1200
aI60
aI1200
aI70
aI1200
aI80
aI1200
aI90
aI1200
aI100
aI1200
aI110
aI1200
aI120
aI1200
aI130
aI1200
aI140
aI1200
aI150
aI1200
aI160
aI1200
aI170
aI1200
aI180
aI1200
aI190
aI1200
aI200
aI1200
aI210
aI1200
aI220
aI1200
aI230
aI1200
aI240
aI1200
aI250
aI1200
aI260
aI1200
aI270
aI1200
aI280
aI1200
aI290
aI1200
aI300
aI1200
aI310
aI1200
aI320
aI1200
aI330
aI1200
aI340
aI1200
aI350
aI1200
aI360
aI1200
aI370
aI1200
aI380
aI1200
aI390
aI1200
aI400
aI1200
aI410
aI1200
aI420
aI1200
aI430
aI1200
aI440
aI1200
aI450
aI1200
aI460
aI1200
aI470
aI1200
aI480
aI1200
aI490
aI1200
aI500
aI1200
aI510
aI1200
aI520
aI1200
aI530
aI1200
aI540
aI1200
aI550
aI1200
aI560
aI1200
aI570
aI1200
aI580
aI1200
aI590
aI1200
aI600
aI1200
aI610
aI1200
aI620
aI1200
aI630
aI1200
aI640
aI1200
aI650
aI1200
aI660
aI1200
aI670
aI1200
aI680
aI1200
aI690
aI1300
aI-700
aI1300
aI-690
aI1300
aI-680
aI1300
aI-670
aI1300
aI-660
aI1300
aI-650
aI1300
aI-640
aI1300
aI-630
aI1300
aI-620
aI1300
aI-610
aI1300
aI-600
aI1300
aI-590
aI1300
aI-580
aI1300
aI-570
aI1300
aI-560
aI1300
aI-550
aI1300
aI-540
aI1300
aI-530
aI1300
aI-520
aI1300
aI-510
aI1300
aI-500
aI1300
aI-490
aI1300
aI-480
aI1300
aI-470
aI1300
aI-460
aI1300
aI-450
aI1300
aI-440
aI1300
aI-430
aI1300
aI-420
aI1300
aI-410
aI1300
aI-400
aI1300
aI-390
aI1300
aI-380
aI1300
aI-370
aI1300
aI-360
aI1300
aI-350
aI1300
aI-340
aI1300
aI-330
aI1300
aI-320
aI1300
aI-310
aI1300
aI-300
aI1300
aI-290
aI1300
aI-280
aI1300
aI-270
aI1300
aI-260
aI1300
aI-250
aI1300
aI-240
aI1300
aI-230
aI1300
aI-220
aI1300
aI-210
aI1300
aI-200
aI1300
aI-190
aI1300
aI-180
aI1300
aI-170
aI1300
aI-160
aI1300
aI-150
aI1300
aI-140
aI1300
aI-130
aI1300
aI-120
aI1300
aI-110
aI1300
aI-100
aI1300
aI-90
aI1300
aI-80
aI1300
aI-70
aI1300
aI-60
aI1300
aI-50
aI1300
aI-40
aI1300
aI-30
aI1300
aI-20
aI1300
aI-10
aI1300
aI0
aI1300
aI10
aI1300
aI20
aI1300
aI30
aI1300
aI40
aI1300
aI50
aI1300
aI60
aI1300
aI70
aI1300
aI80
aI1300
aI90
aI1300
aI100
aI1300
aI110
aI1300
aI120
aI1300
aI130
aI1300
aI140
aI1300
aI150
aI1300
aI160
aI1300
aI170
aI1300
aI180
aI1300
aI190
aI1300
aI200
aI1300
aI210
aI1300
aI220
aI1300
aI230
aI1300
aI240
aI1300
aI250
aI1300
aI260
aI1300
aI270
aI1300
aI280
aI1300
aI290
aI1300
aI300
aI1300
aI310
aI1300
aI320
aI1300
aI330
aI1300
aI340
aI1300
aI350
aI1300
aI360
aI1300
aI370
aI1300
aI380
aI1300
aI390
aI1300
aI400
aI1300
aI410
aI1300
aI420
aI1300
aI430
aI1300
aI440
aI1300
aI450
aI1300
aI460
aI1300
aI470
aI1300
aI480
aI1300
aI490
aI1300
aI500
aI1300
aI510
aI1300
aI520
aI1300
aI530
aI1300
aI540
aI1300
aI550
aI1300
aI560
aI1300
aI570
aI1300
aI580
aI1300
aI590
aI1300
aI600
aI1300
aI610
aI1300
aI620
aI1300
aI630
aI1300
aI640
aI1300
aI650
aI1300
aI660
aI1300
aI670
aI1300
aI680
aI1300
aI690
aI1400
aI-700
aI1400
aI-690
aI1400
aI-680
aI1400
aI-670
aI1400
aI-660
aI1400
aI-650
aI1400
aI-640
aI1400
aI-630
aI1400
aI-620
aI1400
aI-610
aI1400
aI-600
aI1400
aI-590
aI1400
aI-580
aI1400
aI-570
aI1400
aI-560
aI1400
aI-550
aI1400
aI-540
aI1400
aI-530
aI1400
aI-520
aI1400
aI-510
aI1400
aI-500
aI1400
aI-490
aI1400
aI-480
aI1400
aI-470
aI1400
aI-460
aI1400
aI-450
aI1400
aI-440
aI1400
aI-430
aI1400
aI-420
aI1400
aI-410
aI1400
aI-400
aI1400
aI-390
aI1400
aI-380
aI1400
aI-370
aI1400
aI-360
aI1400
aI-350
aI1400
aI-340
aI1400
aI-330
aI1400
aI-320
aI1400
aI-310
aI1400
aI-300
aI1400
aI-290
aI1400
aI-280
aI1400
aI-270
aI1400
aI-260
aI1400
aI-250
aI1400
aI-240
aI1400
aI-230
aI1400
aI-220
aI1400
aI-210
aI1400
aI-200
aI1400
aI-190
aI1400
aI-180
aI1400
aI-170
aI1400
aI-160
aI1400
aI-150
aI1400
aI-140
aI1400
aI-130
aI1400
aI-120
aI1400
aI-110
aI1400
aI-100
aI1400
aI-90
aI1400
aI-80
aI1400
aI-70
aI1400
aI-60
aI1400
aI-50
aI1400
aI-40
aI1400
aI-30
aI1400
aI-20
aI1400
aI-10
aI1400
aI0
aI1400
aI10
aI1400
aI20
aI1400
aI30
aI1400
aI40
aI1400
aI50
aI1400
aI60
aI1400
aI70
aI1400
aI80
aI1400
aI90
aI1400
aI100
aI1400
aI110
aI1400
aI120
aI1400
aI130
aI1400
aI140
aI1400
aI150
aI1400
aI160
aI1400
aI170
aI1400
aI180
aI1400
aI190
aI1400
aI200
aI1400
aI210
aI1400
aI220
aI1400
aI230
aI1400
aI240
aI1400
aI250
aI1400
aI260
aI1400
aI270
aI1400
aI280
aI1400
aI290
aI1400
aI300
aI1400
aI310
aI1400
aI320
aI1400
aI330
aI1400
aI340
aI1400
aI350
aI1400
aI360
aI1400
aI370
aI1400
aI380
aI1400
aI390
aI1400
aI400
aI1400
aI410
aI1400
aI420
aI1400
aI430
aI1400
aI440
aI1400
aI450
aI1400
aI460
aI1400
aI470
aI1400
aI480
aI1400
aI490
aI1400
aI500
aI1400
aI510
aI1400
aI520
aI1400
aI530
aI1400
aI540
aI1400
aI550
aI1400
aI560
aI1400
aI570
aI1400
aI580
aI1400
aI590
aI1400
aI600
aI1400
aI610
aI1400
aI620
aI1400
aI630
aI1400
aI640
aI1400
aI650
aI1400
aI660
aI1400
aI670
aI1400
aI680
aI1400
aI690
aI1500
aI-700
aI1500
aI-690
aI1500
aI-680
aI1500
aI-670
aI1500
aI-660
aI1500
aI-650
aI1500
aI-640
aI1500
aI-630
aI1500
aI-620
aI1500
aI-610
aI1500
aI-600
aI1500
aI-590
aI1500
aI-580
aI1500
aI-570
aI1500
aI-560
aI1500
aI-550
aI1500
aI-540
aI1500
aI-530
aI1500
aI-520
aI1500
aI-510
aI1500
aI-500
aI1500
aI-490
aI1500
aI-480
aI1500
aI-470
aI1500
aI-460
aI1500
aI-450
aI1500
aI-440
aI1500
aI-430
aI1500
aI-420
aI1500
aI-410
aI1500
aI-400
aI1500
aI-390
aI1500
aI-380
aI1500
aI-370
aI1500
aI-360
aI1500
aI-350
aI1500
aI-340
aI1500
aI-330
aI1500
aI-320
aI1500
aI-310
aI1500
aI-300
aI1500
aI-290
aI1500
aI-280
aI1500
aI-270
aI1500
aI-260
aI1500
aI-250
aI1500
aI-240
aI1500
aI-230
aI1500
aI-220
aI1500
aI-210
aI1500
aI-200
aI1500
aI-190
aI1500
aI-180
aI1500
aI-170
aI1500
aI-160
aI1500
aI-150
aI1500
aI-140
aI1500
aI-130
aI1500
aI-120
aI1500
aI-110
aI1500
aI-100
aI1500
aI-90
aI1500
aI-80
aI1500
aI-70
aI1500
aI-60
aI1500
aI-50
aI1500
aI-40
aI1500
aI-30
aI1500
aI-20
aI1500
aI-10
aI1500
aI0
aI1500
aI10
aI1500
aI20
aI1500
aI30
aI1500
aI40
aI1500
aI50
aI1500
aI60
aI1500
aI70
aI1500
aI80
aI1500
aI90
aI1500
aI100
aI1500
aI110
aI1500
aI120
aI1500
aI130
aI1500
aI140
aI1500
aI150
aI1500
aI160
aI1500
aI170
aI1500
aI180
aI1500
aI190
aI1500
aI200
aI1500
aI210
aI1500
aI220
aI1500
aI230
aI1500
aI240
aI1500
aI250
aI1500
aI260
aI1500
aI270
aI1500
aI280
aI1500
aI290
aI1500
aI300
aI1500
aI310
aI1500
aI320
aI1500
aI330
aI1500
aI340
aI1500
aI350
aI1500
aI360
aI1500
aI370
aI1500
aI380
aI1500
aI390
aI1500
aI400
aI1500
aI410
aI1500
aI420
aI1500
aI430
aI1500
aI440
aI1500
aI450
aI1500
aI460
aI1500
aI470
aI1500
aI480
aI1500
aI490
aI1500
aI500
aI1500
aI510
aI1500
aI520
aI1500
aI530
aI1500
aI540
aI1500
aI550
aI1500
aI560
aI1500
aI570
aI1500
aI580
aI1500
aI590
aI1500
aI600
aI1500
aI610
aI1500
aI620
aI1500
aI630
aI1500
aI640
aI1500
aI650
aI1500
aI660
aI1500
aI670
aI1500
aI680
aI1500
aI690
aI1600
aI-700
aI1600
aI-690
aI1600
aI-680
aI1600
aI-670
aI1600
aI-660
aI1600
aI-650
aI1600
aI-640
aI1600
aI-630
aI1600
aI-620
aI1600
aI-610
aI1600
aI-600
aI1600
aI-590
aI1600
aI-580
aI1600
aI-570
aI1600
aI-560
aI1600
aI-550
aI1600
aI-540
aI1600
aI-530
aI1600
aI-520
aI1600
aI-510
aI1600
aI-500
aI1600
aI-490
aI1600
aI-480
aI1600
aI-470
aI1600
aI-460
aI1600
aI-450
aI1600
aI-440
aI1600
aI-430
aI1600
aI-420
aI1600
aI-410
aI1600
aI-400
aI1600
aI-390
aI1600
aI-380
aI1600
aI-370
aI1600
aI-360
aI1600
aI-350
aI1600
aI-340
aI1600
aI-330
aI1600
aI-320
aI1600
aI-310
aI1600
aI-300
aI1600
aI-290
aI1600
aI-280
aI1600
aI-270
aI1600
aI-260
aI1600
aI-250
aI1600
aI-240
aI1600
aI-230
aI1600
aI-220
aI1600
aI-210
aI1600
aI-200
aI1600
aI-190
aI1600
aI-180
aI1600
aI-170
aI1600
aI-160
aI1600
aI-150
aI1600
aI-140
aI1600
aI-130
aI1600
aI-120
aI1600
aI-110
aI1600
aI-100
aI1600
aI-90
aI1600
aI-80
aI1600
aI-70
aI1600
aI-60
aI1600
aI-50
aI1600
aI-40
aI1600
aI-30
aI1600
aI-20
aI1600
aI-10
aI1600
aI0
aI1600
aI10
aI1600
aI20
aI1600
aI30
aI1600
aI40
aI1600
aI50
aI1600
aI60
aI1600
aI70
aI1600
aI80
aI1600
aI90
aI1600
aI100
aI1600
aI110
aI1600
aI120
aI1600
aI130
aI1600
aI140
aI1600
aI150
aI1600
aI160
aI1600
aI170
aI1600
aI180
aI1600
aI190
aI1600
aI200
aI1600
aI210
aI1600
aI220
aI1600
aI230
aI1600
aI240
aI1600
aI250
aI1600
aI260
aI1600
aI270
aI1600
aI280
aI1600
aI290
aI1600
aI300
aI1600
aI310
aI1600
aI320
aI1600
aI330
aI1600
aI340
aI1600
aI350
aI1600
aI360
aI1600
aI370
aI1600
aI380
aI1600
aI390
aI1600
aI400
aI1600
aI410
aI1600
aI420
aI1600
aI430
aI1600
aI440
aI1600
aI450
aI1600
aI460
aI1600
aI470
aI1600
aI480
aI1600
aI490
aI1600
aI500
aI1600
aI510
aI1600
aI520
aI1600
aI530
aI1600
aI540
aI1600
aI550
aI1600
aI560
aI1600
aI570
aI1600
aI580
aI1600
aI590
aI1600
aI600
aI1600
aI610
aI1600
aI620
aI1600
aI630
aI1600
aI640
aI1600
aI650
aI1600
aI660
aI1600
aI670
aI1600
aI680
aI1600
aI690
aI1700
aI-700
aI1700
aI-690
aI1700
aI-680
aI1700
aI-670
aI1700
aI-660
aI1700
aI-650
aI1700
aI-640
aI1700
aI-630
aI1700
aI-620
aI1700
aI-610
aI1700
aI-600
aI1700
aI-590
aI1700
aI-580
aI1700
aI-570
aI1700
aI-560
aI1700
aI-550
aI1700
aI-540
aI1700
aI-530
aI1700
aI-520
aI1700
aI-510
aI1700
aI-500
aI1700
aI-490
aI1700
aI-480
aI1700
aI-470
aI1700
aI-460
aI1700
aI-450
aI1700
aI-440
aI1700
aI-430
aI1700
aI-420
aI1700
aI-410
aI1700
aI-400
aI1700
aI-390
aI1700
aI-380
aI1700
aI-370
aI1700
aI-360
aI1700
aI-350
aI1700
aI-340
aI1700
aI-330
aI1700
aI-320
aI1700
aI-310
aI1700
aI-300
aI1700
aI-290
aI1700
aI-280
aI1700
aI-270
aI1700
aI-260
aI1700
aI-250
aI1700
aI-240
aI1700
aI-230
aI1700
aI-220
aI1700
aI-210
aI1700
aI-200
aI1700
aI-190
aI1700
aI-180
aI1700
aI-170
aI1700
aI-160
aI1700
aI-150
aI1700
aI-140
aI1700
aI-130
aI1700
aI-120
aI1700
aI-110
aI1700
aI-100
aI1700
aI-90
aI1700
aI-80
aI1700
aI-70
aI1700
aI-60
aI1700
aI-50
aI1700
aI-40
aI1700
aI-30
aI1700
aI-20
aI1700
aI-10
aI1700
aI0
aI1700
aI10
aI1700
aI20
aI1700
aI30
aI1700
aI40
aI1700
aI50
aI1700
aI60
aI1700
aI70
aI1700
aI80
aI1700
aI90
aI1700
aI100
aI1700
aI110
aI1700
aI120
aI1700
aI130
aI1700
aI140
aI1700
aI150
aI1700
aI160
aI1700
aI170
aI1700
aI180
aI1700
aI190
aI1700
aI200
aI1700
aI210
aI1700
aI220
aI1700
aI230
aI1700
aI240
aI1700
aI250
aI1700
aI260
aI1700
aI270
aI1700
aI280
aI1700
aI290
aI1700
aI300
aI1700
aI310
aI1700
aI320
aI1700
aI330
aI1700
aI340
aI1700
aI350
aI1700
aI360
aI1700
aI370
aI1700
aI380
aI1700
aI390
aI1700
aI400
aI1700
aI410
aI1700
aI420
aI1700
aI430
aI1700
aI440
aI1700
aI450
aI1700
aI460
aI1700
aI470
aI1700
aI480
aI1700
aI490
aI1700
aI500
aI1700
aI510
aI1700
aI520
aI1700
aI530
aI1700
aI540
aI1700
aI550
aI1700
aI560
aI1700
aI570
aI1700
aI580
aI1700
aI590
aI1700
aI600
aI1700
aI610
aI1700
aI620
aI1700
aI630
aI1700
aI640
aI1700
aI650
aI1700
aI660
aI1700
aI670
aI1700
aI680
aI1700
aI690
aI1800
aI-700
aI1800
aI-690
aI1800
aI-680
aI1800
aI-670
aI1800
aI-660
aI1800
aI-650
aI1800
aI-640
aI1800
aI-630
aI1800
aI-620
aI1800
aI-610
aI1800
aI-600
aI1800
aI-590
aI1800
aI-580
aI1800
aI-570
aI1800
aI-560
aI1800
aI-550
aI1800
aI-540
aI1800
aI-530
aI1800
aI-520
aI1800
aI-510
aI1800
aI-500
aI1800
aI-490
aI1800
aI-480
aI1800
aI-470
aI1800
aI-460
aI1800
aI-450
aI1800
aI-440
aI1800
aI-430
aI1800
aI-420
aI1800
aI-410
aI1800
aI-400
aI1800
aI-390
aI1800
aI-380
aI1800
aI-370
aI1800
aI-360
aI1800
aI-350
aI1800
aI-340
aI1800
aI-330
aI1800
aI-320
aI1800
aI-310
aI1800
aI-300
aI1800
aI-290
aI1800
aI-280
aI1800
aI-270
aI1800
aI-260
aI1800
aI-250
aI1800
aI-240
aI1800
aI-230
aI1800
aI-220
aI1800
aI-210
aI1800
aI-200
aI1800
aI-190
aI1800
aI-180
aI1800
aI-170
aI1800
aI-160
aI1800
aI-150
aI1800
aI-140
aI1800
aI-130
aI1800
aI-120
aI1800
aI-110
aI1800
aI-100
aI1800
aI-90
aI1800
aI-80
aI1800
aI-70
aI1800
aI-60
aI1800
aI-50
aI1800
aI-40
aI1800
aI-30
aI1800
aI-20
aI1800
aI-10
aI1800
aI0
aI1800
aI10
aI1800
aI20
aI1800
aI30
aI1800
aI40
aI1800
aI50
aI1800
aI60
aI1800
aI70
aI1800
aI80
aI1800
aI90
aI1800
aI100
aI1800
aI110
aI1800
aI120
aI1800
aI130
aI1800
aI140
aI1800
aI150
aI1800
aI160
aI1800
aI170
aI1800
aI180
aI1800
aI190
aI1800
aI200
aI1800
aI210
aI1800
aI220
aI1800
aI230
aI1800
aI240
aI1800
aI250
aI1800
aI260
aI1800
aI270
aI1800
aI280
aI1800
aI290
aI1800
aI300
aI1800
aI310
aI1800
aI320
aI1800
aI330
aI1800
aI340
aI1800
aI350
aI1800
aI360
aI1800
aI370
aI1800
aI380
aI1800
aI390
aI1800
aI400
aI1800
aI410
aI1800
aI420
aI1800
aI430
aI1800
aI440
aI1800
aI450
aI1800
aI460
aI1800
aI470
aI1800
aI480
aI1800
aI490
aI1800
aI500
aI1800
aI510
aI1800
aI520
aI1800
aI530
aI1800
aI540
aI1800
aI550
aI1800
aI560
aI1800
aI570
aI1800
aI580
aI1800
aI590
aI1800
aI600
aI1800
aI610
aI1800
aI620
aI1800
aI630
aI1800
aI640
aI1800
aI650
aI1800
aI660
aI1800
aI670
aI1800
aI680
aI1800
aI690
aI1900
aI-700
aI1900
aI-690
aI1900
aI-680
aI1900
aI-670
aI1900
aI-660
aI1900
aI-650
aI1900
aI-640
aI1900
aI-630
aI1900
aI-620
aI1900
aI-610
aI1900
aI-600
aI1900
aI-590
aI1900
aI-580
aI1900
aI-570
aI1900
aI-560
aI1900
aI-550
aI1900
aI-540
aI1900
aI-530
aI1900
aI-520
aI1900
aI-510
aI1900
aI-500
aI1900
aI-490
aI1900
aI-480
aI1900
aI-470
aI1900
aI-460
aI1900
aI-450
aI1900
aI-440
aI1900
aI-430
aI1900
aI-420
aI1900
aI-410
aI1900
aI-400
aI1900
aI-390
aI1900
aI-380
aI1900
aI-370
aI1900
aI-360
aI1900
aI-350
aI1900
aI-340
aI1900
aI-330
aI1900
aI-320
aI1900
aI-310
aI1900
aI-300
aI1900
aI-290
aI1900
aI-280
aI1900
aI-270
aI1900
aI-260
aI1900
aI-250
aI1900
aI-240
aI1900
aI-230
aI1900
aI-220
aI1900
aI-210
aI1900
aI-200
aI1900
aI-190
aI1900
aI-180
aI1900
aI-170
aI1900
aI-160
aI1900
aI-150
aI1900
aI-140
aI1900
aI-130
aI1900
aI-120
aI1900
aI-110
aI1900
aI-100
aI1900
aI-90
aI1900
aI-80
aI1900
aI-70
aI1900
aI-60
aI1900
aI-50
aI1900
aI-40
aI1900
aI-30
aI1900
aI-20
aI1900
aI-10
aI1900
aI0
aI1900
aI10
aI1900
aI20
aI1900
aI30
aI1900
aI40
aI1900
aI50
aI1900
aI60
aI1900
aI70
aI1900
aI80
aI1900
aI90
aI1900
aI100
aI1900
aI110
aI1900
aI120
aI1900
aI130
aI1900
aI140
aI1900
aI150
aI1900
aI160
aI1900
aI170
aI1900
aI180
aI1900
aI190
aI1900
aI200
aI1900
aI210
aI1900
aI220
aI1900
aI230
aI1900
aI240
aI1900
aI250
aI1900
aI260
aI1900
aI270
aI1900
aI280
aI1900
aI290
aI1900
aI300
aI1900
aI310
aI1900
aI320
aI1900
aI330
aI1900
aI340
aI1900
aI350
aI1900
aI360
aI1900
aI370
aI1900
aI380
aI1900
aI390
aI1900
aI400
aI1900
aI410
aI1900
aI420
aI1900
aI430
aI1900
aI440
aI1900
aI450
aI1900
aI460
aI1900
aI470
aI1900
aI480
aI1900
aI490
aI1900
aI500
aI1900
aI510
aI1900
aI520
aI1900
aI530
aI1900
aI540
aI1900
aI550
aI1900
aI560
aI1900
aI570
aI1900
aI580
aI1900
aI590
aI1900
aI600
aI1900
aI610
aI1900
aI620
aI1900
aI630
aI1900
aI640
aI1900
aI650
aI1900
aI660
aI1900
aI670
aI1900
aI680
aI1900
aI690
aI-2000
aI-700
aI-1990
aI-700
aI-1980
aI-700
aI-1970
aI-700
aI-1960
aI-700
aI-1950
aI-700
aI-1940
aI-700
aI-1930
aI-700
aI-1920
aI-700
aI-1910
aI-700
aI-1900
aI-700
aI-1890
aI-700
aI-1880
aI-700
aI-1870
aI-700
aI-1860
aI-700
aI-1850
aI-700
aI-1840
aI-700
aI-1830
aI-700
aI-1820
aI-700
aI-1810
aI-700
aI-1800
aI-700
aI-1790
aI-700
aI-1780
aI-700
aI-1770
aI-700
aI-1760
aI-700
aI-1750
aI-700
aI-1740
aI-700
aI-1730
aI-700
aI-1720
aI-700
aI-1710
aI-700
aI-1700
aI-700
aI-1690
aI-700
aI-1680
aI-700
aI-1670
aI-700
aI-1660
aI-700
aI-1650
aI-700
aI-1640
aI-700
aI-1630
aI-700
aI-1620
aI-700
aI-1610
aI-700
aI-1600
aI-700
aI-1590
aI-700
aI-1580
aI-700
aI-1570
aI-700
aI-1560
aI-700
aI-1550
aI-700
aI-1540
aI-700
aI-1530
aI-700
aI-1520
aI-700
aI-1510
aI-700
aI-1500
aI-700
aI-1490
aI-700
aI-1480
aI-700
aI-1470
aI-700
aI-1460
aI-700
aI-1450
aI-700
aI-1440
aI-700
aI-1430
aI-700
aI-1420
aI-700
aI-1410
aI-700
aI-1400
aI-700
aI-1390
aI-700
aI-1380
aI-700
aI-1370
aI-700
aI-1360
aI-700
aI-1350
aI-700
aI-1340
aI-700
aI-1330
aI-700
aI-1320
aI-700
aI-1310
aI-700
aI-1300
aI-700
aI-1290
aI-700
aI-1280
aI-700
aI-1270
aI-700
aI-1260
aI-700
aI-1250
aI-700
aI-1240
aI-700
aI-1230
aI-700
aI-1220
aI-700
aI-1210
aI-700
aI-1200
aI-700
aI-1190
aI-700
aI-1180
aI-700
aI-1170
aI-700
aI-1160
aI-700
aI-1150
aI-700
aI-1140
aI-700
aI-1130
aI-700
aI-1120
aI-700
aI-1110
aI-700
aI-1100
aI-700
aI-1090
aI-700
aI-1080
aI-700
aI-1070
aI-700
aI-1060
aI-700
aI-1050
aI-700
aI-1040
aI-700
aI-1030
aI-700
aI-1020
aI-700
aI-1010
aI-700
aI-1000
aI-700
aI-990
aI-700
aI-980
aI-700
aI-970
aI-700
aI-960
aI-700
aI-950
aI-700
aI-940
aI-700
aI-930
aI-700
aI-920
aI-700
aI-910
aI-700
aI-900
aI-700
aI-890
aI-700
aI-880
aI-700
aI-870
aI-700
aI-860
aI-700
aI-850
aI-700
aI-840
aI-700
aI-830
aI-700
aI-820
aI-700
aI-810
aI-700
aI-800
aI-700
aI-790
aI-700
aI-780
aI-700
aI-770
aI-700
aI-760
aI-700
aI-750
aI-700
aI-740
aI-700
aI-730
aI-700
aI-720
aI-700
aI-710
aI-700
aI-700
aI-700
aI-690
aI-700
aI-680
aI-700
aI-670
aI-700
aI-660
aI-700
aI-650
aI-700
aI-640
aI-700
aI-630
aI-700
aI-620
aI-700
aI-610
aI-700
aI-600
aI-700
aI-590
aI-700
aI-580
aI-700
aI-570
aI-700
aI-560
aI-700
aI-550
aI-700
aI-540
aI-700
aI-530
aI-700
aI-520
aI-700
aI-510
aI-700
aI-500
aI-700
aI-490
aI-700
aI-480
aI-700
aI-470
aI-700
aI-460
aI-700
aI-450
aI-700
aI-440
aI-700
aI-430
aI-700
aI-420
aI-700
aI-410
aI-700
aI-400
aI-700
aI-390
aI-700
aI-380
aI-700
aI-370
aI-700
aI-360
aI-700
aI-350
aI-700
aI-340
aI-700
aI-330
aI-700
aI-320
aI-700
aI-310
aI-700
aI-300
aI-700
aI-290
aI-700
aI-280
aI-700
aI-270
aI-700
aI-260
aI-700
aI-250
aI-700
aI-240
aI-700
aI-230
aI-700
aI-220
aI-700
aI-210
aI-700
aI-200
aI-700
aI-190
aI-700
aI-180
aI-700
aI-170
aI-700
aI-160
aI-700
aI-150
aI-700
aI-140
aI-700
aI-130
aI-700
aI-120
aI-700
aI-110
aI-700
aI-100
aI-700
aI-90
aI-700
aI-80
aI-700
aI-70
aI-700
aI-60
aI-700
aI-50
aI-700
aI-40
aI-700
aI-30
aI-700
aI-20
aI-700
aI-10
aI-700
aI0
aI-700
aI10
aI-700
aI20
aI-700
aI30
aI-700
aI40
aI-700
aI50
aI-700
aI60
aI-700
aI70
aI-700
aI80
aI-700
aI90
aI-700
aI100
aI-700
aI110
aI-700
aI120
aI-700
aI130
aI-700
aI140
aI-700
aI150
aI-700
aI160
aI-700
aI170
aI-700
aI180
aI-700
aI190
aI-700
aI200
aI-700
aI210
aI-700
aI220
aI-700
aI230
aI-700
aI240
aI-700
aI250
aI-700
aI260
aI-700
aI270
aI-700
aI280
aI-700
aI290
aI-700
aI300
aI-700
aI310
aI-700
aI320
aI-700
aI330
aI-700
aI340
aI-700
aI350
aI-700
aI360
aI-700
aI370
aI-700
aI380
aI-700
aI390
aI-700
aI400
aI-700
aI410
aI-700
aI420
aI-700
aI430
aI-700
aI440
aI-700
aI450
aI-700
aI460
aI-700
aI470
aI-700
aI480
aI-700
aI490
aI-700
aI500
aI-700
aI510
aI-700
aI520
aI-700
aI530
aI-700
aI540
aI-700
aI550
aI-700
aI560
aI-700
aI570
aI-700
aI580
aI-700
aI590
aI-700
aI600
aI-700
aI610
aI-700
aI620
aI-700
aI630
aI-700
aI640
aI-700
aI650
aI-700
aI660
aI-700
aI670
aI-700
aI680
aI-700
aI690
aI-700
aI700
aI-700
aI710
aI-700
aI720
aI-700
aI730
aI-700
aI740
aI-700
aI750
aI-700
aI760
aI-700
aI770
aI-700
aI780
aI-700
aI790
aI-700
aI800
aI-700
aI810
aI-700
aI820
aI-700
aI830
aI-700
aI840
aI-700
aI850
aI-700
aI860
aI-700
aI870
aI-700
aI880
aI-700
aI890
aI-700
aI900
aI-700
aI910
aI-700
aI920
aI-700
aI930
aI-700
aI940
aI-700
aI950
aI-700
aI960
aI-700
aI970
aI-700
aI980
aI-700
aI990
aI-700
aI1000
aI-700
aI1010
aI-700
aI1020
aI-700
aI1030
aI-700
aI1040
aI-700
aI1050
aI-700
aI1060
aI-700
aI1070
aI-700
aI1080
aI-700
aI1090
aI-700
aI1100
aI-700
aI1110
aI-700
aI1120
aI-700
aI1130
aI-700
aI1140
aI-700
aI1150
aI-700
aI1160
aI-700
aI1170
aI-700
aI1180
aI-700
aI1190
aI-700
aI1200
aI-700
aI1210
aI-700
aI1220
aI-700
aI1230
aI-700
aI1240
aI-700
aI1250
aI-700
aI1260
aI-700
aI1270
aI-700
aI1280
aI-700
aI1290
aI-700
aI1300
aI-700
aI1310
aI-700
aI1320
aI-700
aI1330
aI-700
aI1340
aI-700
aI1350
aI-700
aI1360
aI-700
aI1370
aI-700
aI1380
aI-700
aI1390
aI-700
aI1400
aI-700
aI1410
aI-700
aI1420
aI-700
aI1430
aI-700
aI1440
aI-700
aI1450
aI-700
aI1460
aI-700
aI1470
aI-700
aI1480
aI-700
aI1490
aI-700
aI1500
aI-700
aI1510
aI-700
aI1520
aI-700
aI1530
aI-700
aI1540
aI-700
aI1550
aI-700
aI1560
aI-700
aI1570
aI-700
aI1580
aI-700
aI1590
aI-700
aI1600
aI-700
aI1610
aI-700
aI1620
aI-700
aI1630
aI-700
aI1640
aI-700
aI1650
aI-700
aI1660
aI-700
aI1670
aI-700
aI1680
aI-700
aI1690
aI-700
aI1700
aI-700
aI1710
aI-700
aI1720
aI-700
aI1730
aI-700
aI1740
aI-700
aI1750
aI-700
aI1760
aI-700
aI1770
aI-700
aI1780
aI-700
aI1790
aI-700
aI1800
aI-700
aI1810
aI-700
aI1820
aI-700
aI1830
aI-700
aI1840
aI-700
aI1850
aI-700
aI1860
aI-700
aI1870
aI-700
aI1880
aI-700
aI1890
aI-700
aI1900
aI-700
aI1910
aI-700
aI1920
aI-700
aI1930
aI-700
aI1940
aI-700
aI1950
aI-700
aI1960
aI-700
aI1970
aI-700
aI1980
aI-700
aI1990
aI-700
aI-2000
aI-600
aI-1990
aI-600
aI-1980
aI-600
aI-1970
aI-600
aI-1960
aI-600
aI-1950
aI-600
aI-1940
aI-600
aI-1930
aI-600
aI-1920
aI-600
aI-1910
aI-600
aI-1900
aI-600
aI-1890
aI-600
aI-1880
aI-600
aI-1870
aI-600
aI-1860
aI-600
aI-1850
aI-600
aI-1840
aI-600
aI-1830
aI-600
aI-1820
aI-600
aI-1810
aI-600
aI-1800
aI-600
aI-1790
aI-600
aI-1780
aI-600
aI-1770
aI-600
aI-1760
aI-600
aI-1750
aI-600
aI-1740
aI-600
aI-1730
aI-600
aI-1720
aI-600
aI-1710
aI-600
aI-1700
aI-600
aI-1690
aI-600
aI-1680
aI-600
aI-1670
aI-600
aI-1660
aI-600
aI-1650
aI-600
aI-1640
aI-600
aI-1630
aI-600
aI-1620
aI-600
aI-1610
aI-600
aI-1600
aI-600
aI-1590
aI-600
aI-1580
aI-600
aI-1570
aI-600
aI-1560
aI-600
aI-1550
aI-600
aI-1540
aI-600
aI-1530
aI-600
aI-1520
aI-600
aI-1510
aI-600
aI-1500
aI-600
aI-1490
aI-600
aI-1480
aI-600
aI-1470
aI-600
aI-1460
aI-600
aI-1450
aI-600
aI-1440
aI-600
aI-1430
aI-600
aI-1420
aI-600
aI-1410
aI-600
aI-1400
aI-600
aI-1390
aI-600
aI-1380
aI-600
aI-1370
aI-600
aI-1360
aI-600
aI-1350
aI-600
aI-1340
aI-600
aI-1330
aI-600
aI-1320
aI-600
aI-1310
aI-600
aI-1300
aI-600
aI-1290
aI-600
aI-1280
aI-600
aI-1270
aI-600
aI-1260
aI-600
aI-1250
aI-600
aI-1240
aI-600
aI-1230
aI-600
aI-1220
aI-600
aI-1210
aI-600
aI-1200
aI-600
aI-1190
aI-600
aI-1180
aI-600
aI-1170
aI-600
aI-1160
aI-600
aI-1150
aI-600
aI-1140
aI-600
aI-1130
aI-600
aI-1120
aI-600
aI-1110
aI-600
aI-1100
aI-600
aI-1090
aI-600
aI-1080
aI-600
aI-1070
aI-600
aI-1060
aI-600
aI-1050
aI-600
aI-1040
aI-600
aI-1030
aI-600
aI-1020
aI-600
aI-1010
aI-600
aI-1000
aI-600
aI-990
aI-600
aI-980
aI-600
aI-970
aI-600
aI-960
aI-600
aI-950
aI-600
aI-940
aI-600
aI-930
aI-600
aI-920
aI-600
aI-910
aI-600
aI-900
aI-600
aI-890
aI-600
aI-880
aI-600
aI-870
aI-600
aI-860
aI-600
aI-850
aI-600
aI-840
aI-600
aI-830
aI-600
aI-820
aI-600
aI-810
aI-600
aI-800
aI-600
aI-790
aI-600
aI-780
aI-600
aI-770
aI-600
aI-760
aI-600
aI-750
aI-600
aI-740
aI-600
aI-730
aI-600
aI-720
aI-600
aI-710
aI-600
aI-700
aI-600
aI-690
aI-600
aI-680
aI-600
aI-670
aI-600
aI-660
aI-600
aI-650
aI-600
aI-640
aI-600
aI-630
aI-600
aI-620
aI-600
aI-610
aI-600
aI-600
aI-600
aI-590
aI-600
aI-580
aI-600
aI-570
aI-600
aI-560
aI-600
aI-550
aI-600
aI-540
aI-600
aI-530
aI-600
aI-520
aI-600
aI-510
aI-600
aI-500
aI-600
aI-490
aI-600
aI-480
aI-600
aI-470
aI-600
aI-460
aI-600
aI-450
aI-600
aI-440
aI-600
aI-430
aI-600
aI-420
aI-600
aI-410
aI-600
aI-400
aI-600
aI-390
aI-600
aI-380
aI-600
aI-370
aI-600
aI-360
aI-600
aI-350
aI-600
aI-340
aI-600
aI-330
aI-600
aI-320
aI-600
aI-310
aI-600
aI-300
aI-600
aI-290
aI-600
aI-280
aI-600
aI-270
aI-600
aI-260
aI-600
aI-250
aI-600
aI-240
aI-600
aI-230
aI-600
aI-220
aI-600
aI-210
aI-600
aI-200
aI-600
aI-190
aI-600
aI-180
aI-600
aI-170
aI-600
aI-160
aI-600
aI-150
aI-600
aI-140
aI-600
aI-130
aI-600
aI-120
aI-600
aI-110
aI-600
aI-100
aI-600
aI-90
aI-600
aI-80
aI-600
aI-70
aI-600
aI-60
aI-600
aI-50
aI-600
aI-40
aI-600
aI-30
aI-600
aI-20
aI-600
aI-10
aI-600
aI0
aI-600
aI10
aI-600
aI20
aI-600
aI30
aI-600
aI40
aI-600
aI50
aI-600
aI60
aI-600
aI70
aI-600
aI80
aI-600
aI90
aI-600
aI100
aI-600
aI110
aI-600
aI120
aI-600
aI130
aI-600
aI140
aI-600
aI150
aI-600
aI160
aI-600
aI170
aI-600
aI180
aI-600
aI190
aI-600
aI200
aI-600
aI210
aI-600
aI220
aI-600
aI230
aI-600
aI240
aI-600
aI250
aI-600
aI260
aI-600
aI270
aI-600
aI280
aI-600
aI290
aI-600
aI300
aI-600
aI310
aI-600
aI320
aI-600
aI330
aI-600
aI340
aI-600
aI350
aI-600
aI360
aI-600
aI370
aI-600
aI380
aI-600
aI390
aI-600
aI400
aI-600
aI410
aI-600
aI420
aI-600
aI430
aI-600
aI440
aI-600
aI450
aI-600
aI460
aI-600
aI470
aI-600
aI480
aI-600
aI490
aI-600
aI500
aI-600
aI510
aI-600
aI520
aI-600
aI530
aI-600
aI540
aI-600
aI550
aI-600
aI560
aI-600
aI570
aI-600
aI580
aI-600
aI590
aI-600
aI600
aI-600
aI610
aI-600
aI620
aI-600
aI630
aI-600
aI640
aI-600
aI650
aI-600
aI660
aI-600
aI670
aI-600
aI680
aI-600
aI690
aI-600
aI700
aI-600
aI710
aI-600
aI720
aI-600
aI730
aI-600
aI740
aI-600
aI750
aI-600
aI760
aI-600
aI770
aI-600
aI780
aI-600
aI790
aI-600
aI800
aI-600
aI810
aI-600
aI820
aI-600
aI830
aI-600
aI840
aI-600
aI850
aI-600
aI860
aI-600
aI870
aI-600
aI880
aI-600
aI890
aI-600
aI900
aI-600
aI910
aI-600
aI920
aI-600
aI930
aI-600
aI940
aI-600
aI950
aI-600
aI960
aI-600
aI970
aI-600
aI980
aI-600
aI990
aI-600
aI1000
aI-600
aI1010
aI-600
aI1020
aI-600
aI1030
aI-600
aI1040
aI-600
aI1050
aI-600
aI1060
aI-600
aI1070
aI-600
aI1080
aI-600
aI1090
aI-600
aI1100
aI-600
aI1110
aI-600
aI1120
aI-600
aI1130
aI-600
aI1140
aI-600
aI1150
aI-600
aI1160
aI-600
aI1170
aI-600
aI1180
aI-600
aI1190
aI-600
aI1200
aI-600
aI1210
aI-600
aI1220
aI-600
aI1230
aI-600
aI1240
aI-600
aI1250
aI-600
aI1260
aI-600
aI1270
aI-600
aI1280
aI-600
aI1290
aI-600
aI1300
aI-600
aI1310
aI-600
aI1320
aI-600
aI1330
aI-600
aI1340
aI-600
aI1350
aI-600
aI1360
aI-600
aI1370
aI-600
aI1380
aI-600
aI1390
aI-600
aI1400
aI-600
aI1410
aI-600
aI1420
aI-600
aI1430
aI-600
aI1440
aI-600
aI1450
aI-600
aI1460
aI-600
aI1470
aI-600
aI1480
aI-600
aI1490
aI-600
aI1500
aI-600
aI1510
aI-600
aI1520
aI-600
aI1530
aI-600
aI1540
aI-600
aI1550
aI-600
aI1560
aI-600
aI1570
aI-600
aI1580
aI-600
aI1590
aI-600
aI1600
aI-600
aI1610
aI-600
aI1620
aI-600
aI1630
aI-600
aI1640
aI-600
aI1650
aI-600
aI1660
aI-600
aI1670
aI-600
aI1680
aI-600
aI1690
aI-600
aI1700
aI-600
aI1710
aI-600
aI1720
aI-600
aI1730
aI-600
aI1740
aI-600
aI1750
aI-600
aI1760
aI-600
aI1770
aI-600
aI1780
aI-600
aI1790
aI-600
aI1800
aI-600
aI1810
aI-600
aI1820
aI-600
aI1830
aI-600
aI1840
aI-600
aI1850
aI-600
aI1860
aI-600
aI1870
aI-600
aI1880
aI-600
aI1890
aI-600
aI1900
aI-600
aI1910
aI-600
aI1920
aI-600
aI1930
aI-600
aI1940
aI-600
aI1950
aI-600
aI1960
aI-600
aI1970
aI-600
aI1980
aI-600
aI1990
aI-600
aI-2000
aI-500
aI-1990
aI-500
aI-1980
aI-500
aI-1970
aI-500
aI-1960
aI-500
aI-1950
aI-500
aI-1940
aI-500
aI-1930
aI-500
aI-1920
aI-500
aI-1910
aI-500
aI-1900
aI-500
aI-1890
aI-500
aI-1880
aI-500
aI-1870
aI-500
aI-1860
aI-500
aI-1850
aI-500
aI-1840
aI-500
aI-1830
aI-500
aI-1820
aI-500
aI-1810
aI-500
aI-1800
aI-500
aI-1790
aI-500
aI-1780
aI-500
aI-1770
aI-500
aI-1760
aI-500
aI-1750
aI-500
aI-1740
aI-500
aI-1730
aI-500
aI-1720
aI-500
aI-1710
aI-500
aI-1700
aI-500
aI-1690
aI-500
aI-1680
aI-500
aI-1670
aI-500
aI-1660
aI-500
aI-1650
aI-500
aI-1640
aI-500
aI-1630
aI-500
aI-1620
aI-500
aI-1610
aI-500
aI-1600
aI-500
aI-1590
aI-500
aI-1580
aI-500
aI-1570
aI-500
aI-1560
aI-500
aI-1550
aI-500
aI-1540
aI-500
aI-1530
aI-500
aI-1520
aI-500
aI-1510
aI-500
aI-1500
aI-500
aI-1490
aI-500
aI-1480
aI-500
aI-1470
aI-500
aI-1460
aI-500
aI-1450
aI-500
aI-1440
aI-500
aI-1430
aI-500
aI-1420
aI-500
aI-1410
aI-500
aI-1400
aI-500
aI-1390
aI-500
aI-1380
aI-500
aI-1370
aI-500
aI-1360
aI-500
aI-1350
aI-500
aI-1340
aI-500
aI-1330
aI-500
aI-1320
aI-500
aI-1310
aI-500
aI-1300
aI-500
aI-1290
aI-500
aI-1280
aI-500
aI-1270
aI-500
aI-1260
aI-500
aI-1250
aI-500
aI-1240
aI-500
aI-1230
aI-500
aI-1220
aI-500
aI-1210
aI-500
aI-1200
aI-500
aI-1190
aI-500
aI-1180
aI-500
aI-1170
aI-500
aI-1160
aI-500
aI-1150
aI-500
aI-1140
aI-500
aI-1130
aI-500
aI-1120
aI-500
aI-1110
aI-500
aI-1100
aI-500
aI-1090
aI-500
aI-1080
aI-500
aI-1070
aI-500
aI-1060
aI-500
aI-1050
aI-500
aI-1040
aI-500
aI-1030
aI-500
aI-1020
aI-500
aI-1010
aI-500
aI-1000
aI-500
aI-990
aI-500
aI-980
aI-500
aI-970
aI-500
aI-960
aI-500
aI-950
aI-500
aI-940
aI-500
aI-930
aI-500
aI-920
aI-500
aI-910
aI-500
aI-900
aI-500
aI-890
aI-500
aI-880
aI-500
aI-870
aI-500
aI-860
aI-500
aI-850
aI-500
aI-840
aI-500
aI-830
aI-500
aI-820
aI-500
aI-810
aI-500
aI-800
aI-500
aI-790
aI-500
aI-780
aI-500
aI-770
aI-500
aI-760
aI-500
aI-750
aI-500
aI-740
aI-500
aI-730
aI-500
aI-720
aI-500
aI-710
aI-500
aI-700
aI-500
aI-690
aI-500
aI-680
aI-500
aI-670
aI-500
aI-660
aI-500
aI-650
aI-500
aI-640
aI-500
aI-630
aI-500
aI-620
aI-500
aI-610
aI-500
aI-600
aI-500
aI-590
aI-500
aI-580
aI-500
aI-570
aI-500
aI-560
aI-500
aI-550
aI-500
aI-540
aI-500
aI-530
aI-500
aI-520
aI-500
aI-510
aI-500
aI-500
aI-500
aI-490
aI-500
aI-480
aI-500
aI-470
aI-500
aI-460
aI-500
aI-450
aI-500
aI-440
aI-500
aI-430
aI-500
aI-420
aI-500
aI-410
aI-500
aI-400
aI-500
aI-390
aI-500
aI-380
aI-500
aI-370
aI-500
aI-360
aI-500
aI-350
aI-500
aI-340
aI-500
aI-330
aI-500
aI-320
aI-500
aI-310
aI-500
aI-300
aI-500
aI-290
aI-500
aI-280
aI-500
aI-270
aI-500
aI-260
aI-500
aI-250
aI-500
aI-240
aI-500
aI-230
aI-500
aI-220
aI-500
aI-210
aI-500
aI-200
aI-500
aI-190
aI-500
aI-180
aI-500
aI-170
aI-500
aI-160
aI-500
aI-150
aI-500
aI-140
aI-500
aI-130
aI-500
aI-120
aI-500
aI-110
aI-500
aI-100
aI-500
aI-90
aI-500
aI-80
aI-500
aI-70
aI-500
aI-60
aI-500
aI-50
aI-500
aI-40
aI-500
aI-30
aI-500
aI-20
aI-500
aI-10
aI-500
aI0
aI-500
aI10
aI-500
aI20
aI-500
aI30
aI-500
aI40
aI-500
aI50
aI-500
aI60
aI-500
aI70
aI-500
aI80
aI-500
aI90
aI-500
aI100
aI-500
aI110
aI-500
aI120
aI-500
aI130
aI-500
aI140
aI-500
aI150
aI-500
aI160
aI-500
aI170
aI-500
aI180
aI-500
aI190
aI-500
aI200
aI-500
aI210
aI-500
aI220
aI-500
aI230
aI-500
aI240
aI-500
aI250
aI-500
aI260
aI-500
aI270
aI-500
aI280
aI-500
aI290
aI-500
aI300
aI-500
aI310
aI-500
aI320
aI-500
aI330
aI-500
aI340
aI-500
aI350
aI-500
aI360
aI-500
aI370
aI-500
aI380
aI-500
aI390
aI-500
aI400
aI-500
aI410
aI-500
aI420
aI-500
aI430
aI-500
aI440
aI-500
aI450
aI-500
aI460
aI-500
aI470
aI-500
aI480
aI-500
aI490
aI-500
aI500
aI-500
aI510
aI-500
aI520
aI-500
aI530
aI-500
aI540
aI-500
aI550
aI-500
aI560
aI-500
aI570
aI-500
aI580
aI-500
aI590
aI-500
aI600
aI-500
aI610
aI-500
aI620
aI-500
aI630
aI-500
aI640
aI-500
aI650
aI-500
aI660
aI-500
aI670
aI-500
aI680
aI-500
aI690
aI-500
aI700
aI-500
aI710
aI-500
aI720
aI-500
aI730
aI-500
aI740
aI-500
aI750
aI-500
aI760
aI-500
aI770
aI-500
aI780
aI-500
aI790
aI-500
aI800
aI-500
aI810
aI-500
aI820
aI-500
aI830
aI-500
aI840
aI-500
aI850
aI-500
aI860
aI-500
aI870
aI-500
aI880
aI-500
aI890
aI-500
aI900
aI-500
aI910
aI-500
aI920
aI-500
aI930
aI-500
aI940
aI-500
aI950
aI-500
aI960
aI-500
aI970
aI-500
aI980
aI-500
aI990
aI-500
aI1000
aI-500
aI1010
aI-500
aI1020
aI-500
aI1030
aI-500
aI1040
aI-500
aI1050
aI-500
aI1060
aI-500
aI1070
aI-500
aI1080
aI-500
aI1090
aI-500
aI1100
aI-500
aI1110
aI-500
aI1120
aI-500
aI1130
aI-500
aI1140
aI-500
aI1150
aI-500
aI1160
aI-500
aI1170
aI-500
aI1180
aI-500
aI1190
aI-500
aI1200
aI-500
aI1210
aI-500
aI1220
aI-500
aI1230
aI-500
aI1240
aI-500
aI1250
aI-500
aI1260
aI-500
aI1270
aI-500
aI1280
aI-500
aI1290
aI-500
aI1300
aI-500
aI1310
aI-500
aI1320
aI-500
aI1330
aI-500
aI1340
aI-500
aI1350
aI-500
aI1360
aI-500
aI1370
aI-500
aI1380
aI-500
aI1390
aI-500
aI1400
aI-500
aI1410
aI-500
aI1420
aI-500
aI1430
aI-500
aI1440
aI-500
aI1450
aI-500
aI1460
aI-500
aI1470
aI-500
aI1480
aI-500
aI1490
aI-500
aI1500
aI-500
aI1510
aI-500
aI1520
aI-500
aI1530
aI-500
aI1540
aI-500
aI1550
aI-500
aI1560
aI-500
aI1570
aI-500
aI1580
aI-500
aI1590
aI-500
aI1600
aI-500
aI1610
aI-500
aI1620
aI-500
aI1630
aI-500
aI1640
aI-500
aI1650
aI-500
aI1660
aI-500
aI1670
aI-500
aI1680
aI-500
aI1690
aI-500
aI1700
aI-500
aI1710
aI-500
aI1720
aI-500
aI1730
aI-500
aI1740
aI-500
aI1750
aI-500
aI1760
aI-500
aI1770
aI-500
aI1780
aI-500
aI1790
aI-500
aI1800
aI-500
aI1810
aI-500
aI1820
aI-500
aI1830
aI-500
aI1840
aI-500
aI1850
aI-500
aI1860
aI-500
aI1870
aI-500
aI1880
aI-500
aI1890
aI-500
aI1900
aI-500
aI1910
aI-500
aI1920
aI-500
aI1930
aI-500
aI1940
aI-500
aI1950
aI-500
aI1960
aI-500
aI1970
aI-500
aI1980
aI-500
aI1990
aI-500
aI-2000
aI-400
aI-1990
aI-400
aI-1980
aI-400
aI-1970
aI-400
aI-1960
aI-400
aI-1950
aI-400
aI-1940
aI-400
aI-1930
aI-400
aI-1920
aI-400
aI-1910
aI-400
aI-1900
aI-400
aI-1890
aI-400
aI-1880
aI-400
aI-1870
aI-400
aI-1860
aI-400
aI-1850
aI-400
aI-1840
aI-400
aI-1830
aI-400
aI-1820
aI-400
aI-1810
aI-400
aI-1800
aI-400
aI-1790
aI-400
aI-1780
aI-400
aI-1770
aI-400
aI-1760
aI-400
aI-1750
aI-400
aI-1740
aI-400
aI-1730
aI-400
aI-1720
aI-400
aI-1710
aI-400
aI-1700
aI-400
aI-1690
aI-400
aI-1680
aI-400
aI-1670
aI-400
aI-1660
aI-400
aI-1650
aI-400
aI-1640
aI-400
aI-1630
aI-400
aI-1620
aI-400
aI-1610
aI-400
aI-1600
aI-400
aI-1590
aI-400
aI-1580
aI-400
aI-1570
aI-400
aI-1560
aI-400
aI-1550
aI-400
aI-1540
aI-400
aI-1530
aI-400
aI-1520
aI-400
aI-1510
aI-400
aI-1500
aI-400
aI-1490
aI-400
aI-1480
aI-400
aI-1470
aI-400
aI-1460
aI-400
aI-1450
aI-400
aI-1440
aI-400
aI-1430
aI-400
aI-1420
aI-400
aI-1410
aI-400
aI-1400
aI-400
aI-1390
aI-400
aI-1380
aI-400
aI-1370
aI-400
aI-1360
aI-400
aI-1350
aI-400
aI-1340
aI-400
aI-1330
aI-400
aI-1320
aI-400
aI-1310
aI-400
aI-1300
aI-400
aI-1290
aI-400
aI-1280
aI-400
aI-1270
aI-400
aI-1260
aI-400
aI-1250
aI-400
aI-1240
aI-400
aI-1230
aI-400
aI-1220
aI-400
aI-1210
aI-400
aI-1200
aI-400
aI-1190
aI-400
aI-1180
aI-400
aI-1170
aI-400
aI-1160
aI-400
aI-1150
aI-400
aI-1140
aI-400
aI-1130
aI-400
aI-1120
aI-400
aI-1110
aI-400
aI-1100
aI-400
aI-1090
aI-400
aI-1080
aI-400
aI-1070
aI-400
aI-1060
aI-400
aI-1050
aI-400
aI-1040
aI-400
aI-1030
aI-400
aI-1020
aI-400
aI-1010
aI-400
aI-1000
aI-400
aI-990
aI-400
aI-980
aI-400
aI-970
aI-400
aI-960
aI-400
aI-950
aI-400
aI-940
aI-400
aI-930
aI-400
aI-920
aI-400
aI-910
aI-400
aI-900
aI-400
aI-890
aI-400
aI-880
aI-400
aI-870
aI-400
aI-860
aI-400
aI-850
aI-400
aI-840
aI-400
aI-830
aI-400
aI-820
aI-400
aI-810
aI-400
aI-800
aI-400
aI-790
aI-400
aI-780
aI-400
aI-770
aI-400
aI-760
aI-400
aI-750
aI-400
aI-740
aI-400
aI-730
aI-400
aI-720
aI-400
aI-710
aI-400
aI-700
aI-400
aI-690
aI-400
aI-680
aI-400
aI-670
aI-400
aI-660
aI-400
aI-650
aI-400
aI-640
aI-400
aI-630
aI-400
aI-620
aI-400
aI-610
aI-400
aI-600
aI-400
aI-590
aI-400
aI-580
aI-400
aI-570
aI-400
aI-560
aI-400
aI-550
aI-400
aI-540
aI-400
aI-530
aI-400
aI-520
aI-400
aI-510
aI-400
aI-500
aI-400
aI-490
aI-400
aI-480
aI-400
aI-470
aI-400
aI-460
aI-400
aI-450
aI-400
aI-440
aI-400
aI-430
aI-400
aI-420
aI-400
aI-410
aI-400
aI-400
aI-400
aI-390
aI-400
aI-380
aI-400
aI-370
aI-400
aI-360
aI-400
aI-350
aI-400
aI-340
aI-400
aI-330
aI-400
aI-320
aI-400
aI-310
aI-400
aI-300
aI-400
aI-290
aI-400
aI-280
aI-400
aI-270
aI-400
aI-260
aI-400
aI-250
aI-400
aI-240
aI-400
aI-230
aI-400
aI-220
aI-400
aI-210
aI-400
aI-200
aI-400
aI-190
aI-400
aI-180
aI-400
aI-170
aI-400
aI-160
aI-400
aI-150
aI-400
aI-140
aI-400
aI-130
aI-400
aI-120
aI-400
aI-110
aI-400
aI-100
aI-400
aI-90
aI-400
aI-80
aI-400
aI-70
aI-400
aI-60
aI-400
aI-50
aI-400
aI-40
aI-400
aI-30
aI-400
aI-20
aI-400
aI-10
aI-400
aI0
aI-400
aI10
aI-400
aI20
aI-400
aI30
aI-400
aI40
aI-400
aI50
aI-400
aI60
aI-400
aI70
aI-400
aI80
aI-400
aI90
aI-400
aI100
aI-400
aI110
aI-400
aI120
aI-400
aI130
aI-400
aI140
aI-400
aI150
aI-400
aI160
aI-400
aI170
aI-400
aI180
aI-400
aI190
aI-400
aI200
aI-400
aI210
aI-400
aI220
aI-400
aI230
aI-400
aI240
aI-400
aI250
aI-400
aI260
aI-400
aI270
aI-400
aI280
aI-400
aI290
aI-400
aI300
aI-400
aI310
aI-400
aI320
aI-400
aI330
aI-400
aI340
aI-400
aI350
aI-400
aI360
aI-400
aI370
aI-400
aI380
aI-400
aI390
aI-400
aI400
aI-400
aI410
aI-400
aI420
aI-400
aI430
aI-400
aI440
aI-400
aI450
aI-400
aI460
aI-400
aI470
aI-400
aI480
aI-400
aI490
aI-400
aI500
aI-400
aI510
aI-400
aI520
aI-400
aI530
aI-400
aI540
aI-400
aI550
aI-400
aI560
aI-400
aI570
aI-400
aI580
aI-400
aI590
aI-400
aI600
aI-400
aI610
aI-400
aI620
aI-400
aI630
aI-400
aI640
aI-400
aI650
aI-400
aI660
aI-400
aI670
aI-400
aI680
aI-400
aI690
aI-400
aI700
aI-400
aI710
aI-400
aI720
aI-400
aI730
aI-400
aI740
aI-400
aI750
aI-400
aI760
aI-400
aI770
aI-400
aI780
aI-400
aI790
aI-400
aI800
aI-400
aI810
aI-400
aI820
aI-400
aI830
aI-400
aI840
aI-400
aI850
aI-400
aI860
aI-400
aI870
aI-400
aI880
aI-400
aI890
aI-400
aI900
aI-400
aI910
aI-400
aI920
aI-400
aI930
aI-400
aI940
aI-400
aI950
aI-400
aI960
aI-400
aI970
aI-400
aI980
aI-400
aI990
aI-400
aI1000
aI-400
aI1010
aI-400
aI1020
aI-400
aI1030
aI-400
aI1040
aI-400
aI1050
aI-400
aI1060
aI-400
aI1070
aI-400
aI1080
aI-400
aI1090
aI-400
aI1100
aI-400
aI1110
aI-400
aI1120
aI-400
aI1130
aI-400
aI1140
aI-400
aI1150
aI-400
aI1160
aI-400
aI1170
aI-400
aI1180
aI-400
aI1190
aI-400
aI1200
aI-400
aI1210
aI-400
aI1220
aI-400
aI1230
aI-400
aI1240
aI-400
aI1250
aI-400
aI1260
aI-400
aI1270
aI-400
aI1280
aI-400
aI1290
aI-400
aI1300
aI-400
aI1310
aI-400
aI1320
aI-400
aI1330
aI-400
aI1340
aI-400
aI1350
aI-400
aI1360
aI-400
aI1370
aI-400
aI1380
aI-400
aI1390
aI-400
aI1400
aI-400
aI1410
aI-400
aI1420
aI-400
aI1430
aI-400
aI1440
aI-400
aI1450
aI-400
aI1460
aI-400
aI1470
aI-400
aI1480
aI-400
aI1490
aI-400
aI1500
aI-400
aI1510
aI-400
aI1520
aI-400
aI1530
aI-400
aI1540
aI-400
aI1550
aI-400
aI1560
aI-400
aI1570
aI-400
aI1580
aI-400
aI1590
aI-400
aI1600
aI-400
aI1610
aI-400
aI1620
aI-400
aI1630
aI-400
aI1640
aI-400
aI1650
aI-400
aI1660
aI-400
aI1670
aI-400
aI1680
aI-400
aI1690
aI-400
aI1700
aI-400
aI1710
aI-400
aI1720
aI-400
aI1730
aI-400
aI1740
aI-400
aI1750
aI-400
aI1760
aI-400
aI1770
aI-400
aI1780
aI-400
aI1790
aI-400
aI1800
aI-400
aI1810
aI-400
aI1820
aI-400
aI1830
aI-400
aI1840
aI-400
aI1850
aI-400
aI1860
aI-400
aI1870
aI-400
aI1880
aI-400
aI1890
aI-400
aI1900
aI-400
aI1910
aI-400
aI1920
aI-400
aI1930
aI-400
aI1940
aI-400
aI1950
aI-400
aI1960
aI-400
aI1970
aI-400
aI1980
aI-400
aI1990
aI-400
aI-2000
aI-300
aI-1990
aI-300
aI-1980
aI-300
aI-1970
aI-300
aI-1960
aI-300
aI-1950
aI-300
aI-1940
aI-300
aI-1930
aI-300
aI-1920
aI-300
aI-1910
aI-300
aI-1900
aI-300
aI-1890
aI-300
aI-1880
aI-300
aI-1870
aI-300
aI-1860
aI-300
aI-1850
aI-300
aI-1840
aI-300
aI-1830
aI-300
aI-1820
aI-300
aI-1810
aI-300
aI-1800
aI-300
aI-1790
aI-300
aI-1780
aI-300
aI-1770
aI-300
aI-1760
aI-300
aI-1750
aI-300
aI-1740
aI-300
aI-1730
aI-300
aI-1720
aI-300
aI-1710
aI-300
aI-1700
aI-300
aI-1690
aI-300
aI-1680
aI-300
aI-1670
aI-300
aI-1660
aI-300
aI-1650
aI-300
aI-1640
aI-300
aI-1630
aI-300
aI-1620
aI-300
aI-1610
aI-300
aI-1600
aI-300
aI-1590
aI-300
aI-1580
aI-300
aI-1570
aI-300
aI-1560
aI-300
aI-1550
aI-300
aI-1540
aI-300
aI-1530
aI-300
aI-1520
aI-300
aI-1510
aI-300
aI-1500
aI-300
aI-1490
aI-300
aI-1480
aI-300
aI-1470
aI-300
aI-1460
aI-300
aI-1450
aI-300
aI-1440
aI-300
aI-1430
aI-300
aI-1420
aI-300
aI-1410
aI-300
aI-1400
aI-300
aI-1390
aI-300
aI-1380
aI-300
aI-1370
aI-300
aI-1360
aI-300
aI-1350
aI-300
aI-1340
aI-300
aI-1330
aI-300
aI-1320
aI-300
aI-1310
aI-300
aI-1300
aI-300
aI-1290
aI-300
aI-1280
aI-300
aI-1270
aI-300
aI-1260
aI-300
aI-1250
aI-300
aI-1240
aI-300
aI-1230
aI-300
aI-1220
aI-300
aI-1210
aI-300
aI-1200
aI-300
aI-1190
aI-300
aI-1180
aI-300
aI-1170
aI-300
aI-1160
aI-300
aI-1150
aI-300
aI-1140
aI-300
aI-1130
aI-300
aI-1120
aI-300
aI-1110
aI-300
aI-1100
aI-300
aI-1090
aI-300
aI-1080
aI-300
aI-1070
aI-300
aI-1060
aI-300
aI-1050
aI-300
aI-1040
aI-300
aI-1030
aI-300
aI-1020
aI-300
aI-1010
aI-300
aI-1000
aI-300
aI-990
aI-300
aI-980
aI-300
aI-970
aI-300
aI-960
aI-300
aI-950
aI-300
aI-940
aI-300
aI-930
aI-300
aI-920
aI-300
aI-910
aI-300
aI-900
aI-300
aI-890
aI-300
aI-880
aI-300
aI-870
aI-300
aI-860
aI-300
aI-850
aI-300
aI-840
aI-300
aI-830
aI-300
aI-820
aI-300
aI-810
aI-300
aI-800
aI-300
aI-790
aI-300
aI-780
aI-300
aI-770
aI-300
aI-760
aI-300
aI-750
aI-300
aI-740
aI-300
aI-730
aI-300
aI-720
aI-300
aI-710
aI-300
aI-700
aI-300
aI-690
aI-300
aI-680
aI-300
aI-670
aI-300
aI-660
aI-300
aI-650
aI-300
aI-640
aI-300
aI-630
aI-300
aI-620
aI-300
aI-610
aI-300
aI-600
aI-300
aI-590
aI-300
aI-580
aI-300
aI-570
aI-300
aI-560
aI-300
aI-550
aI-300
aI-540
aI-300
aI-530
aI-300
aI-520
aI-300
aI-510
aI-300
aI-500
aI-300
aI-490
aI-300
aI-480
aI-300
aI-470
aI-300
aI-460
aI-300
aI-450
aI-300
aI-440
aI-300
aI-430
aI-300
aI-420
aI-300
aI-410
aI-300
aI-400
aI-300
aI-390
aI-300
aI-380
aI-300
aI-370
aI-300
aI-360
aI-300
aI-350
aI-300
aI-340
aI-300
aI-330
aI-300
aI-320
aI-300
aI-310
aI-300
aI-300
aI-300
aI-290
aI-300
aI-280
aI-300
aI-270
aI-300
aI-260
aI-300
aI-250
aI-300
aI-240
aI-300
aI-230
aI-300
aI-220
aI-300
aI-210
aI-300
aI-200
aI-300
aI-190
aI-300
aI-180
aI-300
aI-170
aI-300
aI-160
aI-300
aI-150
aI-300
aI-140
aI-300
aI-130
aI-300
aI-120
aI-300
aI-110
aI-300
aI-100
aI-300
aI-90
aI-300
aI-80
aI-300
aI-70
aI-300
aI-60
aI-300
aI-50
aI-300
aI-40
aI-300
aI-30
aI-300
aI-20
aI-300
aI-10
aI-300
aI0
aI-300
aI10
aI-300
aI20
aI-300
aI30
aI-300
aI40
aI-300
aI50
aI-300
aI60
aI-300
aI70
aI-300
aI80
aI-300
aI90
aI-300
aI100
aI-300
aI110
aI-300
aI120
aI-300
aI130
aI-300
aI140
aI-300
aI150
aI-300
aI160
aI-300
aI170
aI-300
aI180
aI-300
aI190
aI-300
aI200
aI-300
aI210
aI-300
aI220
aI-300
aI230
aI-300
aI240
aI-300
aI250
aI-300
aI260
aI-300
aI270
aI-300
aI280
aI-300
aI290
aI-300
aI300
aI-300
aI310
aI-300
aI320
aI-300
aI330
aI-300
aI340
aI-300
aI350
aI-300
aI360
aI-300
aI370
aI-300
aI380
aI-300
aI390
aI-300
aI400
aI-300
aI410
aI-300
aI420
aI-300
aI430
aI-300
aI440
aI-300
aI450
aI-300
aI460
aI-300
aI470
aI-300
aI480
aI-300
aI490
aI-300
aI500
aI-300
aI510
aI-300
aI520
aI-300
aI530
aI-300
aI540
aI-300
aI550
aI-300
aI560
aI-300
aI570
aI-300
aI580
aI-300
aI590
aI-300
aI600
aI-300
aI610
aI-300
aI620
aI-300
aI630
aI-300
aI640
aI-300
aI650
aI-300
aI660
aI-300
aI670
aI-300
aI680
aI-300
aI690
aI-300
aI700
aI-300
aI710
aI-300
aI720
aI-300
aI730
aI-300
aI740
aI-300
aI750
aI-300
aI760
aI-300
aI770
aI-300
aI780
aI-300
aI790
aI-300
aI800
aI-300
aI810
aI-300
aI820
aI-300
aI830
aI-300
aI840
aI-300
aI850
aI-300
aI860
aI-300
aI870
aI-300
aI880
aI-300
aI890
aI-300
aI900
aI-300
aI910
aI-300
aI920
aI-300
aI930
aI-300
aI940
aI-300
aI950
aI-300
aI960
aI-300
aI970
aI-300
aI980
aI-300
aI990
aI-300
aI1000
aI-300
aI1010
aI-300
aI1020
aI-300
aI1030
aI-300
aI1040
aI-300
aI1050
aI-300
aI1060
aI-300
aI1070
aI-300
aI1080
aI-300
aI1090
aI-300
aI1100
aI-300
aI1110
aI-300
aI1120
aI-300
aI1130
aI-300
aI1140
aI-300
aI1150
aI-300
aI1160
aI-300
aI1170
aI-300
aI1180
aI-300
aI1190
aI-300
aI1200
aI-300
aI1210
aI-300
aI1220
aI-300
aI1230
aI-300
aI1240
aI-300
aI1250
aI-300
aI1260
aI-300
aI1270
aI-300
aI1280
aI-300
aI1290
aI-300
aI1300
aI-300
aI1310
aI-300
aI1320
aI-300
aI1330
aI-300
aI1340
aI-300
aI1350
aI-300
aI1360
aI-300
aI1370
aI-300
aI1380
aI-300
aI1390
aI-300
aI1400
aI-300
aI1410
aI-300
aI1420
aI-300
aI1430
aI-300
aI1440
aI-300
aI1450
aI-300
aI1460
aI-300
aI1470
aI-300
aI1480
aI-300
aI1490
aI-300
aI1500
aI-300
aI1510
aI-300
aI1520
aI-300
aI1530
aI-300
aI1540
aI-300
aI1550
aI-300
aI1560
aI-300
aI1570
aI-300
aI1580
aI-300
aI1590
aI-300
aI1600
aI-300
aI1610
aI-300
aI1620
aI-300
aI1630
aI-300
aI1640
aI-300
aI1650
aI-300
aI1660
aI-300
aI1670
aI-300
aI1680
aI-300
aI1690
aI-300
aI1700
aI-300
aI1710
aI-300
aI1720
aI-300
aI1730
aI-300
aI1740
aI-300
aI1750
aI-300
aI1760
aI-300
aI1770
aI-300
aI1780
aI-300
aI1790
aI-300
aI1800
aI-300
aI1810
aI-300
aI1820
aI-300
aI1830
aI-300
aI1840
aI-300
aI1850
aI-300
aI1860
aI-300
aI1870
aI-300
aI1880
aI-300
aI1890
aI-300
aI1900
aI-300
aI1910
aI-300
aI1920
aI-300
aI1930
aI-300
aI1940
aI-300
aI1950
aI-300
aI1960
aI-300
aI1970
aI-300
aI1980
aI-300
aI1990
aI-300
aI-2000
aI-200
aI-1990
aI-200
aI-1980
aI-200
aI-1970
aI-200
aI-1960
aI-200
aI-1950
aI-200
aI-1940
aI-200
aI-1930
aI-200
aI-1920
aI-200
aI-1910
aI-200
aI-1900
aI-200
aI-1890
aI-200
aI-1880
aI-200
aI-1870
aI-200
aI-1860
aI-200
aI-1850
aI-200
aI-1840
aI-200
aI-1830
aI-200
aI-1820
aI-200
aI-1810
aI-200
aI-1800
aI-200
aI-1790
aI-200
aI-1780
aI-200
aI-1770
aI-200
aI-1760
aI-200
aI-1750
aI-200
aI-1740
aI-200
aI-1730
aI-200
aI-1720
aI-200
aI-1710
aI-200
aI-1700
aI-200
aI-1690
aI-200
aI-1680
aI-200
aI-1670
aI-200
aI-1660
aI-200
aI-1650
aI-200
aI-1640
aI-200
aI-1630
aI-200
aI-1620
aI-200
aI-1610
aI-200
aI-1600
aI-200
aI-1590
aI-200
aI-1580
aI-200
aI-1570
aI-200
aI-1560
aI-200
aI-1550
aI-200
aI-1540
aI-200
aI-1530
aI-200
aI-1520
aI-200
aI-1510
aI-200
aI-1500
aI-200
aI-1490
aI-200
aI-1480
aI-200
aI-1470
aI-200
aI-1460
aI-200
aI-1450
aI-200
aI-1440
aI-200
aI-1430
aI-200
aI-1420
aI-200
aI-1410
aI-200
aI-1400
aI-200
aI-1390
aI-200
aI-1380
aI-200
aI-1370
aI-200
aI-1360
aI-200
aI-1350
aI-200
aI-1340
aI-200
aI-1330
aI-200
aI-1320
aI-200
aI-1310
aI-200
aI-1300
aI-200
aI-1290
aI-200
aI-1280
aI-200
aI-1270
aI-200
aI-1260
aI-200
aI-1250
aI-200
aI-1240
aI-200
aI-1230
aI-200
aI-1220
aI-200
aI-1210
aI-200
aI-1200
aI-200
aI-1190
aI-200
aI-1180
aI-200
aI-1170
aI-200
aI-1160
aI-200
aI-1150
aI-200
aI-1140
aI-200
aI-1130
aI-200
aI-1120
aI-200
aI-1110
aI-200
aI-1100
aI-200
aI-1090
aI-200
aI-1080
aI-200
aI-1070
aI-200
aI-1060
aI-200
aI-1050
aI-200
aI-1040
aI-200
aI-1030
aI-200
aI-1020
aI-200
aI-1010
aI-200
aI-1000
aI-200
aI-990
aI-200
aI-980
aI-200
aI-970
aI-200
aI-960
aI-200
aI-950
aI-200
aI-940
aI-200
aI-930
aI-200
aI-920
aI-200
aI-910
aI-200
aI-900
aI-200
aI-890
aI-200
aI-880
aI-200
aI-870
aI-200
aI-860
aI-200
aI-850
aI-200
aI-840
aI-200
aI-830
aI-200
aI-820
aI-200
aI-810
aI-200
aI-800
aI-200
aI-790
aI-200
aI-780
aI-200
aI-770
aI-200
aI-760
aI-200
aI-750
aI-200
aI-740
aI-200
aI-730
aI-200
aI-720
aI-200
aI-710
aI-200
aI-700
aI-200
aI-690
aI-200
aI-680
aI-200
aI-670
aI-200
aI-660
aI-200
aI-650
aI-200
aI-640
aI-200
aI-630
aI-200
aI-620
aI-200
aI-610
aI-200
aI-600
aI-200
aI-590
aI-200
aI-580
aI-200
aI-570
aI-200
aI-560
aI-200
aI-550
aI-200
aI-540
aI-200
aI-530
aI-200
aI-520
aI-200
aI-510
aI-200
aI-500
aI-200
aI-490
aI-200
aI-480
aI-200
aI-470
aI-200
aI-460
aI-200
aI-450
aI-200
aI-440
aI-200
aI-430
aI-200
aI-420
aI-200
aI-410
aI-200
aI-400
aI-200
aI-390
aI-200
aI-380
aI-200
aI-370
aI-200
aI-360
aI-200
aI-350
aI-200
aI-340
aI-200
aI-330
aI-200
aI-320
aI-200
aI-310
aI-200
aI-300
aI-200
aI-290
aI-200
aI-280
aI-200
aI-270
aI-200
aI-260
aI-200
aI-250
aI-200
aI-240
aI-200
aI-230
aI-200
aI-220
aI-200
aI-210
aI-200
aI-200
aI-200
aI-190
aI-200
aI-180
aI-200
aI-170
aI-200
aI-160
aI-200
aI-150
aI-200
aI-140
aI-200
aI-130
aI-200
aI-120
aI-200
aI-110
aI-200
aI-100
aI-200
aI-90
aI-200
aI-80
aI-200
aI-70
aI-200
aI-60
aI-200
aI-50
aI-200
aI-40
aI-200
aI-30
aI-200
aI-20
aI-200
aI-10
aI-200
aI0
aI-200
aI10
aI-200
aI20
aI-200
aI30
aI-200
aI40
aI-200
aI50
aI-200
aI60
aI-200
aI70
aI-200
aI80
aI-200
aI90
aI-200
aI100
aI-200
aI110
aI-200
aI120
aI-200
aI130
aI-200
aI140
aI-200
aI150
aI-200
aI160
aI-200
aI170
aI-200
aI180
aI-200
aI190
aI-200
aI200
aI-200
aI210
aI-200
aI220
aI-200
aI230
aI-200
aI240
aI-200
aI250
aI-200
aI260
aI-200
aI270
aI-200
aI280
aI-200
aI290
aI-200
aI300
aI-200
aI310
aI-200
aI320
aI-200
aI330
aI-200
aI340
aI-200
aI350
aI-200
aI360
aI-200
aI370
aI-200
aI380
aI-200
aI390
aI-200
aI400
aI-200
aI410
aI-200
aI420
aI-200
aI430
aI-200
aI440
aI-200
aI450
aI-200
aI460
aI-200
aI470
aI-200
aI480
aI-200
aI490
aI-200
aI500
aI-200
aI510
aI-200
aI520
aI-200
aI530
aI-200
aI540
aI-200
aI550
aI-200
aI560
aI-200
aI570
aI-200
aI580
aI-200
aI590
aI-200
aI600
aI-200
aI610
aI-200
aI620
aI-200
aI630
aI-200
aI640
aI-200
aI650
aI-200
aI660
aI-200
aI670
aI-200
aI680
aI-200
aI690
aI-200
aI700
aI-200
aI710
aI-200
aI720
aI-200
aI730
aI-200
aI740
aI-200
aI750
aI-200
aI760
aI-200
aI770
aI-200
aI780
aI-200
aI790
aI-200
aI800
aI-200
aI810
aI-200
aI820
aI-200
aI830
aI-200
aI840
aI-200
aI850
aI-200
aI860
aI-200
aI870
aI-200
aI880
aI-200
aI890
aI-200
aI900
aI-200
aI910
aI-200
aI920
aI-200
aI930
aI-200
aI940
aI-200
aI950
aI-200
aI960
aI-200
aI970
aI-200
aI980
aI-200
aI990
aI-200
aI1000
aI-200
aI1010
aI-200
aI1020
aI-200
aI1030
aI-200
aI1040
aI-200
aI1050
aI-200
aI1060
aI-200
aI1070
aI-200
aI1080
aI-200
aI1090
aI-200
aI1100
aI-200
aI1110
aI-200
aI1120
aI-200
aI1130
aI-200
aI1140
aI-200
aI1150
aI-200
aI1160
aI-200
aI1170
aI-200
aI1180
aI-200
aI1190
aI-200
aI1200
aI-200
aI1210
aI-200
aI1220
aI-200
aI1230
aI-200
aI1240
aI-200
aI1250
aI-200
aI1260
aI-200
aI1270
aI-200
aI1280
aI-200
aI1290
aI-200
aI1300
aI-200
aI1310
aI-200
aI1320
aI-200
aI1330
aI-200
aI1340
aI-200
aI1350
aI-200
aI1360
aI-200
aI1370
aI-200
aI1380
aI-200
aI1390
aI-200
aI1400
aI-200
aI1410
aI-200
aI1420
aI-200
aI1430
aI-200
aI1440
aI-200
aI1450
aI-200
aI1460
aI-200
aI1470
aI-200
aI1480
aI-200
aI1490
aI-200
aI1500
aI-200
aI1510
aI-200
aI1520
aI-200
aI1530
aI-200
aI1540
aI-200
aI1550
aI-200
aI1560
aI-200
aI1570
aI-200
aI1580
aI-200
aI1590
aI-200
aI1600
aI-200
aI1610
aI-200
aI1620
aI-200
aI1630
aI-200
aI1640
aI-200
aI1650
aI-200
aI1660
aI-200
aI1670
aI-200
aI1680
aI-200
aI1690
aI-200
aI1700
aI-200
aI1710
aI-200
aI1720
aI-200
aI1730
aI-200
aI1740
aI-200
aI1750
aI-200
aI1760
aI-200
aI1770
aI-200
aI1780
aI-200
aI1790
aI-200
aI1800
aI-200
aI1810
aI-200
aI1820
aI-200
aI1830
aI-200
aI1840
aI-200
aI1850
aI-200
aI1860
aI-200
aI1870
aI-200
aI1880
aI-200
aI1890
aI-200
aI1900
aI-200
aI1910
aI-200
aI1920
aI-200
aI1930
aI-200
aI1940
aI-200
aI1950
aI-200
aI1960
aI-200
aI1970
aI-200
aI1980
aI-200
aI1990
aI-200
aI-2000
aI-100
aI-1990
aI-100
aI-1980
aI-100
aI-1970
aI-100
aI-1960
aI-100
aI-1950
aI-100
aI-1940
aI-100
aI-1930
aI-100
aI-1920
aI-100
aI-1910
aI-100
aI-1900
aI-100
aI-1890
aI-100
aI-1880
aI-100
aI-1870
aI-100
aI-1860
aI-100
aI-1850
aI-100
aI-1840
aI-100
aI-1830
aI-100
aI-1820
aI-100
aI-1810
aI-100
aI-1800
aI-100
aI-1790
aI-100
aI-1780
aI-100
aI-1770
aI-100
aI-1760
aI-100
aI-1750
aI-100
aI-1740
aI-100
aI-1730
aI-100
aI-1720
aI-100
aI-1710
aI-100
aI-1700
aI-100
aI-1690
aI-100
aI-1680
aI-100
aI-1670
aI-100
aI-1660
aI-100
aI-1650
aI-100
aI-1640
aI-100
aI-1630
aI-100
aI-1620
aI-100
aI-1610
aI-100
aI-1600
aI-100
aI-1590
aI-100
aI-1580
aI-100
aI-1570
aI-100
aI-1560
aI-100
aI-1550
aI-100
aI-1540
aI-100
aI-1530
aI-100
aI-1520
aI-100
aI-1510
aI-100
aI-1500
aI-100
aI-1490
aI-100
aI-1480
aI-100
aI-1470
aI-100
aI-1460
aI-100
aI-1450
aI-100
aI-1440
aI-100
aI-1430
aI-100
aI-1420
aI-100
aI-1410
aI-100
aI-1400
aI-100
aI-1390
aI-100
aI-1380
aI-100
aI-1370
aI-100
aI-1360
aI-100
aI-1350
aI-100
aI-1340
aI-100
aI-1330
aI-100
aI-1320
aI-100
aI-1310
aI-100
aI-1300
aI-100
aI-1290
aI-100
aI-1280
aI-100
aI-1270
aI-100
aI-1260
aI-100
aI-1250
aI-100
aI-1240
aI-100
aI-1230
aI-100
aI-1220
aI-100
aI-1210
aI-100
aI-1200
aI-100
aI-1190
aI-100
aI-1180
aI-100
aI-1170
aI-100
aI-1160
aI-100
aI-1150
aI-100
aI-1140
aI-100
aI-1130
aI-100
aI-1120
aI-100
aI-1110
aI-100
aI-1100
aI-100
aI-1090
aI-100
aI-1080
aI-100
aI-1070
aI-100
aI-1060
aI-100
aI-1050
aI-100
aI-1040
aI-100
aI-1030
aI-100
aI-1020
aI-100
aI-1010
aI-100
aI-1000
aI-100
aI-990
aI-100
aI-980
aI-100
aI-970
aI-100
aI-960
aI-100
aI-950
aI-100
aI-940
aI-100
aI-930
aI-100
aI-920
aI-100
aI-910
aI-100
aI-900
aI-100
aI-890
aI-100
aI-880
aI-100
aI-870
aI-100
aI-860
aI-100
aI-850
aI-100
aI-840
aI-100
aI-830
aI-100
aI-820
aI-100
aI-810
aI-100
aI-800
aI-100
aI-790
aI-100
aI-780
aI-100
aI-770
aI-100
aI-760
aI-100
aI-750
aI-100
aI-740
aI-100
aI-730
aI-100
aI-720
aI-100
aI-710
aI-100
aI-700
aI-100
aI-690
aI-100
aI-680
aI-100
aI-670
aI-100
aI-660
aI-100
aI-650
aI-100
aI-640
aI-100
aI-630
aI-100
aI-620
aI-100
aI-610
aI-100
aI-600
aI-100
aI-590
aI-100
aI-580
aI-100
aI-570
aI-100
aI-560
aI-100
aI-550
aI-100
aI-540
aI-100
aI-530
aI-100
aI-520
aI-100
aI-510
aI-100
aI-500
aI-100
aI-490
aI-100
aI-480
aI-100
aI-470
aI-100
aI-460
aI-100
aI-450
aI-100
aI-440
aI-100
aI-430
aI-100
aI-420
aI-100
aI-410
aI-100
aI-400
aI-100
aI-390
aI-100
aI-380
aI-100
aI-370
aI-100
aI-360
aI-100
aI-350
aI-100
aI-340
aI-100
aI-330
aI-100
aI-320
aI-100
aI-310
aI-100
aI-300
aI-100
aI-290
aI-100
aI-280
aI-100
aI-270
aI-100
aI-260
aI-100
aI-250
aI-100
aI-240
aI-100
aI-230
aI-100
aI-220
aI-100
aI-210
aI-100
aI-200
aI-100
aI-190
aI-100
aI-180
aI-100
aI-170
aI-100
aI-160
aI-100
aI-150
aI-100
aI-140
aI-100
aI-130
aI-100
aI-120
aI-100
aI-110
aI-100
aI-100
aI-100
aI-90
aI-100
aI-80
aI-100
aI-70
aI-100
aI-60
aI-100
aI-50
aI-100
aI-40
aI-100
aI-30
aI-100
aI-20
aI-100
aI-10
aI-100
aI0
aI-100
aI10
aI-100
aI20
aI-100
aI30
aI-100
aI40
aI-100
aI50
aI-100
aI60
aI-100
aI70
aI-100
aI80
aI-100
aI90
aI-100
aI100
aI-100
aI110
aI-100
aI120
aI-100
aI130
aI-100
aI140
aI-100
aI150
aI-100
aI160
aI-100
aI170
aI-100
aI180
aI-100
aI190
aI-100
aI200
aI-100
aI210
aI-100
aI220
aI-100
aI230
aI-100
aI240
aI-100
aI250
aI-100
aI260
aI-100
aI270
aI-100
aI280
aI-100
aI290
aI-100
aI300
aI-100
aI310
aI-100
aI320
aI-100
aI330
aI-100
aI340
aI-100
aI350
aI-100
aI360
aI-100
aI370
aI-100
aI380
aI-100
aI390
aI-100
aI400
aI-100
aI410
aI-100
aI420
aI-100
aI430
aI-100
aI440
aI-100
aI450
aI-100
aI460
aI-100
aI470
aI-100
aI480
aI-100
aI490
aI-100
aI500
aI-100
aI510
aI-100
aI520
aI-100
aI530
aI-100
aI540
aI-100
aI550
aI-100
aI560
aI-100
aI570
aI-100
aI580
aI-100
aI590
aI-100
aI600
aI-100
aI610
aI-100
aI620
aI-100
aI630
aI-100
aI640
aI-100
aI650
aI-100
aI660
aI-100
aI670
aI-100
aI680
aI-100
aI690
aI-100
aI700
aI-100
aI710
aI-100
aI720
aI-100
aI730
aI-100
aI740
aI-100
aI750
aI-100
aI760
aI-100
aI770
aI-100
aI780
aI-100
aI790
aI-100
aI800
aI-100
aI810
aI-100
aI820
aI-100
aI830
aI-100
aI840
aI-100
aI850
aI-100
aI860
aI-100
aI870
aI-100
aI880
aI-100
aI890
aI-100
aI900
aI-100
aI910
aI-100
aI920
aI-100
aI930
aI-100
aI940
aI-100
aI950
aI-100
aI960
aI-100
aI970
aI-100
aI980
aI-100
aI990
aI-100
aI1000
aI-100
aI1010
aI-100
aI1020
aI-100
aI1030
aI-100
aI1040
aI-100
aI1050
aI-100
aI1060
aI-100
aI1070
aI-100
aI1080
aI-100
aI1090
aI-100
aI1100
aI-100
aI1110
aI-100
aI1120
aI-100
aI1130
aI-100
aI1140
aI-100
aI1150
aI-100
aI1160
aI-100
aI1170
aI-100
aI1180
aI-100
aI1190
aI-100
aI1200
aI-100
aI1210
aI-100
aI1220
aI-100
aI1230
aI-100
aI1240
aI-100
aI1250
aI-100
aI1260
aI-100
aI1270
aI-100
aI1280
aI-100
aI1290
aI-100
aI1300
aI-100
aI1310
aI-100
aI1320
aI-100
aI1330
aI-100
aI1340
aI-100
aI1350
aI-100
aI1360
aI-100
aI1370
aI-100
aI1380
aI-100
aI1390
aI-100
aI1400
aI-100
aI1410
aI-100
aI1420
aI-100
aI1430
aI-100
aI1440
aI-100
aI1450
aI-100
aI1460
aI-100
aI1470
aI-100
aI1480
aI-100
aI1490
aI-100
aI1500
aI-100
aI1510
aI-100
aI1520
aI-100
aI1530
aI-100
aI1540
aI-100
aI1550
aI-100
aI1560
aI-100
aI1570
aI-100
aI1580
aI-100
aI1590
aI-100
aI1600
aI-100
aI1610
aI-100
aI1620
aI-100
aI1630
aI-100
aI1640
aI-100
aI1650
aI-100
aI1660
aI-100
aI1670
aI-100
aI1680
aI-100
aI1690
aI-100
aI1700
aI-100
aI1710
aI-100
aI1720
aI-100
aI1730
aI-100
aI1740
aI-100
aI1750
aI-100
aI1760
aI-100
aI1770
aI-100
aI1780
aI-100
aI1790
aI-100
aI1800
aI-100
aI1810
aI-100
aI1820
aI-100
aI1830
aI-100
aI1840
aI-100
aI1850
aI-100
aI1860
aI-100
aI1870
aI-100
aI1880
aI-100
aI1890
aI-100
aI1900
aI-100
aI1910
aI-100
aI1920
aI-100
aI1930
aI-100
aI1940
aI-100
aI1950
aI-100
aI1960
aI-100
aI1970
aI-100
aI1980
aI-100
aI1990
aI-100
aI-2000
aI0
aI-1990
aI0
aI-1980
aI0
aI-1970
aI0
aI-1960
aI0
aI-1950
aI0
aI-1940
aI0
aI-1930
aI0
aI-1920
aI0
aI-1910
aI0
aI-1900
aI0
aI-1890
aI0
aI-1880
aI0
aI-1870
aI0
aI-1860
aI0
aI-1850
aI0
aI-1840
aI0
aI-1830
aI0
aI-1820
aI0
aI-1810
aI0
aI-1800
aI0
aI-1790
aI0
aI-1780
aI0
aI-1770
aI0
aI-1760
aI0
aI-1750
aI0
aI-1740
aI0
aI-1730
aI0
aI-1720
aI0
aI-1710
aI0
aI-1700
aI0
aI-1690
aI0
aI-1680
aI0
aI-1670
aI0
aI-1660
aI0
aI-1650
aI0
aI-1640
aI0
aI-1630
aI0
aI-1620
aI0
aI-1610
aI0
aI-1600
aI0
aI-1590
aI0
aI-1580
aI0
aI-1570
aI0
aI-1560
aI0
aI-1550
aI0
aI-1540
aI0
aI-1530
aI0
aI-1520
aI0
aI-1510
aI0
aI-1500
aI0
aI-1490
aI0
aI-1480
aI0
aI-1470
aI0
aI-1460
aI0
aI-1450
aI0
aI-1440
aI0
aI-1430
aI0
aI-1420
aI0
aI-1410
aI0
aI-1400
aI0
aI-1390
aI0
aI-1380
aI0
aI-1370
aI0
aI-1360
aI0
aI-1350
aI0
aI-1340
aI0
aI-1330
aI0
aI-1320
aI0
aI-1310
aI0
aI-1300
aI0
aI-1290
aI0
aI-1280
aI0
aI-1270
aI0
aI-1260
aI0
aI-1250
aI0
aI-1240
aI0
aI-1230
aI0
aI-1220
aI0
aI-1210
aI0
aI-1200
aI0
aI-1190
aI0
aI-1180
aI0
aI-1170
aI0
aI-1160
aI0
aI-1150
aI0
aI-1140
aI0
aI-1130
aI0
aI-1120
aI0
aI-1110
aI0
aI-1100
aI0
aI-1090
aI0
aI-1080
aI0
aI-1070
aI0
aI-1060
aI0
aI-1050
aI0
aI-1040
aI0
aI-1030
aI0
aI-1020
aI0
aI-1010
aI0
aI-1000
aI0
aI-990
aI0
aI-980
aI0
aI-970
aI0
aI-960
aI0
aI-950
aI0
aI-940
aI0
aI-930
aI0
aI-920
aI0
aI-910
aI0
aI-900
aI0
aI-890
aI0
aI-880
aI0
aI-870
aI0
aI-860
aI0
aI-850
aI0
aI-840
aI0
aI-830
aI0
aI-820
aI0
aI-810
aI0
aI-800
aI0
aI-790
aI0
aI-780
aI0
aI-770
aI0
aI-760
aI0
aI-750
aI0
aI-740
aI0
aI-730
aI0
aI-720
aI0
aI-710
aI0
aI-700
aI0
aI-690
aI0
aI-680
aI0
aI-670
aI0
aI-660
aI0
aI-650
aI0
aI-640
aI0
aI-630
aI0
aI-620
aI0
aI-610
aI0
aI-600
aI0
aI-590
aI0
aI-580
aI0
aI-570
aI0
aI-560
aI0
aI-550
aI0
aI-540
aI0
aI-530
aI0
aI-520
aI0
aI-510
aI0
aI-500
aI0
aI-490
aI0
aI-480
aI0
aI-470
aI0
aI-460
aI0
aI-450
aI0
aI-440
aI0
aI-430
aI0
aI-420
aI0
aI-410
aI0
aI-400
aI0
aI-390
aI0
aI-380
aI0
aI-370
aI0
aI-360
aI0
aI-350
aI0
aI-340
aI0
aI-330
aI0
aI-320
aI0
aI-310
aI0
aI-300
aI0
aI-290
aI0
aI-280
aI0
aI-270
aI0
aI-260
aI0
aI-250
aI0
aI-240
aI0
aI-230
aI0
aI-220
aI0
aI-210
aI0
aI-200
aI0
aI-190
aI0
aI-180
aI0
aI-170
aI0
aI-160
aI0
aI-150
aI0
aI-140
aI0
aI-130
aI0
aI-120
aI0
aI-110
aI0
aI-100
aI0
aI-90
aI0
aI-80
aI0
aI-70
aI0
aI-60
aI0
aI-50
aI0
aI-40
aI0
aI-30
aI0
aI-20
aI0
aI-10
aI0
aI0
aI0
aI10
aI0
aI20
aI0
aI30
aI0
aI40
aI0
aI50
aI0
aI60
aI0
aI70
aI0
aI80
aI0
aI90
aI0
aI100
aI0
aI110
aI0
aI120
aI0
aI130
aI0
aI140
aI0
aI150
aI0
aI160
aI0
aI170
aI0
aI180
aI0
aI190
aI0
aI200
aI0
aI210
aI0
aI220
aI0
aI230
aI0
aI240
aI0
aI250
aI0
aI260
aI0
aI270
aI0
aI280
aI0
aI290
aI0
aI300
aI0
aI310
aI0
aI320
aI0
aI330
aI0
aI340
aI0
aI350
aI0
aI360
aI0
aI370
aI0
aI380
aI0
aI390
aI0
aI400
aI0
aI410
aI0
aI420
aI0
aI430
aI0
aI440
aI0
aI450
aI0
aI460
aI0
aI470
aI0
aI480
aI0
aI490
aI0
aI500
aI0
aI510
aI0
aI520
aI0
aI530
aI0
aI540
aI0
aI550
aI0
aI560
aI0
aI570
aI0
aI580
aI0
aI590
aI0
aI600
aI0
aI610
aI0
aI620
aI0
aI630
aI0
aI640
aI0
aI650
aI0
aI660
aI0
aI670
aI0
aI680
aI0
aI690
aI0
aI700
aI0
aI710
aI0
aI720
aI0
aI730
aI0
aI740
aI0
aI750
aI0
aI760
aI0
aI770
aI0
aI780
aI0
aI790
aI0
aI800
aI0
aI810
aI0
aI820
aI0
aI830
aI0
aI840
aI0
aI850
aI0
aI860
aI0
aI870
aI0
aI880
aI0
aI890
aI0
aI900
aI0
aI910
aI0
aI920
aI0
aI930
aI0
aI940
aI0
aI950
aI0
aI960
aI0
aI970
aI0
aI980
aI0
aI990
aI0
aI1000
aI0
aI1010
aI0
aI1020
aI0
aI1030
aI0
aI1040
aI0
aI1050
aI0
aI1060
aI0
aI1070
aI0
aI1080
aI0
aI1090
aI0
aI1100
aI0
aI1110
aI0
aI1120
aI0
aI1130
aI0
aI1140
aI0
aI1150
aI0
aI1160
aI0
aI1170
aI0
aI1180
aI0
aI1190
aI0
aI1200
aI0
aI1210
aI0
aI1220
aI0
aI1230
aI0
aI1240
aI0
aI1250
aI0
aI1260
aI0
aI1270
aI0
aI1280
aI0
aI1290
aI0
aI1300
aI0
aI1310
aI0
aI1320
aI0
aI1330
aI0
aI1340
aI0
aI1350
aI0
aI1360
aI0
aI1370
aI0
aI1380
aI0
aI1390
aI0
aI1400
aI0
aI1410
aI0
aI1420
aI0
aI1430
aI0
aI1440
aI0
aI1450
aI0
aI1460
aI0
aI1470
aI0
aI1480
aI0
aI1490
aI0
aI1500
aI0
aI1510
aI0
aI1520
aI0
aI1530
aI0
aI1540
aI0
aI1550
aI0
aI1560
aI0
aI1570
aI0
aI1580
aI0
aI1590
aI0
aI1600
aI0
aI1610
aI0
aI1620
aI0
aI1630
aI0
aI1640
aI0
aI1650
aI0
aI1660
aI0
aI1670
aI0
aI1680
aI0
aI1690
aI0
aI1700
aI0
aI1710
aI0
aI1720
aI0
aI1730
aI0
aI1740
aI0
aI1750
aI0
aI1760
aI0
aI1770
aI0
aI1780
aI0
aI1790
aI0
aI1800
aI0
aI1810
aI0
aI1820
aI0
aI1830
aI0
aI1840
aI0
aI1850
aI0
aI1860
aI0
aI1870
aI0
aI1880
aI0
aI1890
aI0
aI1900
aI0
aI1910
aI0
aI1920
aI0
aI1930
aI0
aI1940
aI0
aI1950
aI0
aI1960
aI0
aI1970
aI0
aI1980
aI0
aI1990
aI0
aI-2000
aI100
aI-1990
aI100
aI-1980
aI100
aI-1970
aI100
aI-1960
aI100
aI-1950
aI100
aI-1940
aI100
aI-1930
aI100
aI-1920
aI100
aI-1910
aI100
aI-1900
aI100
aI-1890
aI100
aI-1880
aI100
aI-1870
aI100
aI-1860
aI100
aI-1850
aI100
aI-1840
aI100
aI-1830
aI100
aI-1820
aI100
aI-1810
aI100
aI-1800
aI100
aI-1790
aI100
aI-1780
aI100
aI-1770
aI100
aI-1760
aI100
aI-1750
aI100
aI-1740
aI100
aI-1730
aI100
aI-1720
aI100
aI-1710
aI100
aI-1700
aI100
aI-1690
aI100
aI-1680
aI100
aI-1670
aI100
aI-1660
aI100
aI-1650
aI100
aI-1640
aI100
aI-1630
aI100
aI-1620
aI100
aI-1610
aI100
aI-1600
aI100
aI-1590
aI100
aI-1580
aI100
aI-1570
aI100
aI-1560
aI100
aI-1550
aI100
aI-1540
aI100
aI-1530
aI100
aI-1520
aI100
aI-1510
aI100
aI-1500
aI100
aI-1490
aI100
aI-1480
aI100
aI-1470
aI100
aI-1460
aI100
aI-1450
aI100
aI-1440
aI100
aI-1430
aI100
aI-1420
aI100
aI-1410
aI100
aI-1400
aI100
aI-1390
aI100
aI-1380
aI100
aI-1370
aI100
aI-1360
aI100
aI-1350
aI100
aI-1340
aI100
aI-1330
aI100
aI-1320
aI100
aI-1310
aI100
aI-1300
aI100
aI-1290
aI100
aI-1280
aI100
aI-1270
aI100
aI-1260
aI100
aI-1250
aI100
aI-1240
aI100
aI-1230
aI100
aI-1220
aI100
aI-1210
aI100
aI-1200
aI100
aI-1190
aI100
aI-1180
aI100
aI-1170
aI100
aI-1160
aI100
aI-1150
aI100
aI-1140
aI100
aI-1130
aI100
aI-1120
aI100
aI-1110
aI100
aI-1100
aI100
aI-1090
aI100
aI-1080
aI100
aI-1070
aI100
aI-1060
aI100
aI-1050
aI100
aI-1040
aI100
aI-1030
aI100
aI-1020
aI100
aI-1010
aI100
aI-1000
aI100
aI-990
aI100
aI-980
aI100
aI-970
aI100
aI-960
aI100
aI-950
aI100
aI-940
aI100
aI-930
aI100
aI-920
aI100
aI-910
aI100
aI-900
aI100
aI-890
aI100
aI-880
aI100
aI-870
aI100
aI-860
aI100
aI-850
aI100
aI-840
aI100
aI-830
aI100
aI-820
aI100
aI-810
aI100
aI-800
aI100
aI-790
aI100
aI-780
aI100
aI-770
aI100
aI-760
aI100
aI-750
aI100
aI-740
aI100
aI-730
aI100
aI-720
aI100
aI-710
aI100
aI-700
aI100
aI-690
aI100
aI-680
aI100
aI-670
aI100
aI-660
aI100
aI-650
aI100
aI-640
aI100
aI-630
aI100
aI-620
aI100
aI-610
aI100
aI-600
aI100
aI-590
aI100
aI-580
aI100
aI-570
aI100
aI-560
aI100
aI-550
aI100
aI-540
aI100
aI-530
aI100
aI-520
aI100
aI-510
aI100
aI-500
aI100
aI-490
aI100
aI-480
aI100
aI-470
aI100
aI-460
aI100
aI-450
aI100
aI-440
aI100
aI-430
aI100
aI-420
aI100
aI-410
aI100
aI-400
aI100
aI-390
aI100
aI-380
aI100
aI-370
aI100
aI-360
aI100
aI-350
aI100
aI-340
aI100
aI-330
aI100
aI-320
aI100
aI-310
aI100
aI-300
aI100
aI-290
aI100
aI-280
aI100
aI-270
aI100
aI-260
aI100
aI-250
aI100
aI-240
aI100
aI-230
aI100
aI-220
aI100
aI-210
aI100
aI-200
aI100
aI-190
aI100
aI-180
aI100
aI-170
aI100
aI-160
aI100
aI-150
aI100
aI-140
aI100
aI-130
aI100
aI-120
aI100
aI-110
aI100
aI-100
aI100
aI-90
aI100
aI-80
aI100
aI-70
aI100
aI-60
aI100
aI-50
aI100
aI-40
aI100
aI-30
aI100
aI-20
aI100
aI-10
aI100
aI0
aI100
aI10
aI100
aI20
aI100
aI30
aI100
aI40
aI100
aI50
aI100
aI60
aI100
aI70
aI100
aI80
aI100
aI90
aI100
aI100
aI100
aI110
aI100
aI120
aI100
aI130
aI100
aI140
aI100
aI150
aI100
aI160
aI100
aI170
aI100
aI180
aI100
aI190
aI100
aI200
aI100
aI210
aI100
aI220
aI100
aI230
aI100
aI240
aI100
aI250
aI100
aI260
aI100
aI270
aI100
aI280
aI100
aI290
aI100
aI300
aI100
aI310
aI100
aI320
aI100
aI330
aI100
aI340
aI100
aI350
aI100
aI360
aI100
aI370
aI100
aI380
aI100
aI390
aI100
aI400
aI100
aI410
aI100
aI420
aI100
aI430
aI100
aI440
aI100
aI450
aI100
aI460
aI100
aI470
aI100
aI480
aI100
aI490
aI100
aI500
aI100
aI510
aI100
aI520
aI100
aI530
aI100
aI540
aI100
aI550
aI100
aI560
aI100
aI570
aI100
aI580
aI100
aI590
aI100
aI600
aI100
aI610
aI100
aI620
aI100
aI630
aI100
aI640
aI100
aI650
aI100
aI660
aI100
aI670
aI100
aI680
aI100
aI690
aI100
aI700
aI100
aI710
aI100
aI720
aI100
aI730
aI100
aI740
aI100
aI750
aI100
aI760
aI100
aI770
aI100
aI780
aI100
aI790
aI100
aI800
aI100
aI810
aI100
aI820
aI100
aI830
aI100
aI840
aI100
aI850
aI100
aI860
aI100
aI870
aI100
aI880
aI100
aI890
aI100
aI900
aI100
aI910
aI100
aI920
aI100
aI930
aI100
aI940
aI100
aI950
aI100
aI960
aI100
aI970
aI100
aI980
aI100
aI990
aI100
aI1000
aI100
aI1010
aI100
aI1020
aI100
aI1030
aI100
aI1040
aI100
aI1050
aI100
aI1060
aI100
aI1070
aI100
aI1080
aI100
aI1090
aI100
aI1100
aI100
aI1110
aI100
aI1120
aI100
aI1130
aI100
aI1140
aI100
aI1150
aI100
aI1160
aI100
aI1170
aI100
aI1180
aI100
aI1190
aI100
aI1200
aI100
aI1210
aI100
aI1220
aI100
aI1230
aI100
aI1240
aI100
aI1250
aI100
aI1260
aI100
aI1270
aI100
aI1280
aI100
aI1290
aI100
aI1300
aI100
aI1310
aI100
aI1320
aI100
aI1330
aI100
aI1340
aI100
aI1350
aI100
aI1360
aI100
aI1370
aI100
aI1380
aI100
aI1390
aI100
aI1400
aI100
aI1410
aI100
aI1420
aI100
aI1430
aI100
aI1440
aI100
aI1450
aI100
aI1460
aI100
aI1470
aI100
aI1480
aI100
aI1490
aI100
aI1500
aI100
aI1510
aI100
aI1520
aI100
aI1530
aI100
aI1540
aI100
aI1550
aI100
aI1560
aI100
aI1570
aI100
aI1580
aI100
aI1590
aI100
aI1600
aI100
aI1610
aI100
aI1620
aI100
aI1630
aI100
aI1640
aI100
aI1650
aI100
aI1660
aI100
aI1670
aI100
aI1680
aI100
aI1690
aI100
aI1700
aI100
aI1710
aI100
aI1720
aI100
aI1730
aI100
aI1740
aI100
aI1750
aI100
aI1760
aI100
aI1770
aI100
aI1780
aI100
aI1790
aI100
aI1800
aI100
aI1810
aI100
aI1820
aI100
aI1830
aI100
aI1840
aI100
aI1850
aI100
aI1860
aI100
aI1870
aI100
aI1880
aI100
aI1890
aI100
aI1900
aI100
aI1910
aI100
aI1920
aI100
aI1930
aI100
aI1940
aI100
aI1950
aI100
aI1960
aI100
aI1970
aI100
aI1980
aI100
aI1990
aI100
aI-2000
aI200
aI-1990
aI200
aI-1980
aI200
aI-1970
aI200
aI-1960
aI200
aI-1950
aI200
aI-1940
aI200
aI-1930
aI200
aI-1920
aI200
aI-1910
aI200
aI-1900
aI200
aI-1890
aI200
aI-1880
aI200
aI-1870
aI200
aI-1860
aI200
aI-1850
aI200
aI-1840
aI200
aI-1830
aI200
aI-1820
aI200
aI-1810
aI200
aI-1800
aI200
aI-1790
aI200
aI-1780
aI200
aI-1770
aI200
aI-1760
aI200
aI-1750
aI200
aI-1740
aI200
aI-1730
aI200
aI-1720
aI200
aI-1710
aI200
aI-1700
aI200
aI-1690
aI200
aI-1680
aI200
aI-1670
aI200
aI-1660
aI200
aI-1650
aI200
aI-1640
aI200
aI-1630
aI200
aI-1620
aI200
aI-1610
aI200
aI-1600
aI200
aI-1590
aI200
aI-1580
aI200
aI-1570
aI200
aI-1560
aI200
aI-1550
aI200
aI-1540
aI200
aI-1530
aI200
aI-1520
aI200
aI-1510
aI200
aI-1500
aI200
aI-1490
aI200
aI-1480
aI200
aI-1470
aI200
aI-1460
aI200
aI-1450
aI200
aI-1440
aI200
aI-1430
aI200
aI-1420
aI200
aI-1410
aI200
aI-1400
aI200
aI-1390
aI200
aI-1380
aI200
aI-1370
aI200
aI-1360
aI200
aI-1350
aI200
aI-1340
aI200
aI-1330
aI200
aI-1320
aI200
aI-1310
aI200
aI-1300
aI200
aI-1290
aI200
aI-1280
aI200
aI-1270
aI200
aI-1260
aI200
aI-1250
aI200
aI-1240
aI200
aI-1230
aI200
aI-1220
aI200
aI-1210
aI200
aI-1200
aI200
aI-1190
aI200
aI-1180
aI200
aI-1170
aI200
aI-1160
aI200
aI-1150
aI200
aI-1140
aI200
aI-1130
aI200
aI-1120
aI200
aI-1110
aI200
aI-1100
aI200
aI-1090
aI200
aI-1080
aI200
aI-1070
aI200
aI-1060
aI200
aI-1050
aI200
aI-1040
aI200
aI-1030
aI200
aI-1020
aI200
aI-1010
aI200
aI-1000
aI200
aI-990
aI200
aI-980
aI200
aI-970
aI200
aI-960
aI200
aI-950
aI200
aI-940
aI200
aI-930
aI200
aI-920
aI200
aI-910
aI200
aI-900
aI200
aI-890
aI200
aI-880
aI200
aI-870
aI200
aI-860
aI200
aI-850
aI200
aI-840
aI200
aI-830
aI200
aI-820
aI200
aI-810
aI200
aI-800
aI200
aI-790
aI200
aI-780
aI200
aI-770
aI200
aI-760
aI200
aI-750
aI200
aI-740
aI200
aI-730
aI200
aI-720
aI200
aI-710
aI200
aI-700
aI200
aI-690
aI200
aI-680
aI200
aI-670
aI200
aI-660
aI200
aI-650
aI200
aI-640
aI200
aI-630
aI200
aI-620
aI200
aI-610
aI200
aI-600
aI200
aI-590
aI200
aI-580
aI200
aI-570
aI200
aI-560
aI200
aI-550
aI200
aI-540
aI200
aI-530
aI200
aI-520
aI200
aI-510
aI200
aI-500
aI200
aI-490
aI200
aI-480
aI200
aI-470
aI200
aI-460
aI200
aI-450
aI200
aI-440
aI200
aI-430
aI200
aI-420
aI200
aI-410
aI200
aI-400
aI200
aI-390
aI200
aI-380
aI200
aI-370
aI200
aI-360
aI200
aI-350
aI200
aI-340
aI200
aI-330
aI200
aI-320
aI200
aI-310
aI200
aI-300
aI200
aI-290
aI200
aI-280
aI200
aI-270
aI200
aI-260
aI200
aI-250
aI200
aI-240
aI200
aI-230
aI200
aI-220
aI200
aI-210
aI200
aI-200
aI200
aI-190
aI200
aI-180
aI200
aI-170
aI200
aI-160
aI200
aI-150
aI200
aI-140
aI200
aI-130
aI200
aI-120
aI200
aI-110
aI200
aI-100
aI200
aI-90
aI200
aI-80
aI200
aI-70
aI200
aI-60
aI200
aI-50
aI200
aI-40
aI200
aI-30
aI200
aI-20
aI200
aI-10
aI200
aI0
aI200
aI10
aI200
aI20
aI200
aI30
aI200
aI40
aI200
aI50
aI200
aI60
aI200
aI70
aI200
aI80
aI200
aI90
aI200
aI100
aI200
aI110
aI200
aI120
aI200
aI130
aI200
aI140
aI200
aI150
aI200
aI160
aI200
aI170
aI200
aI180
aI200
aI190
aI200
aI200
aI200
aI210
aI200
aI220
aI200
aI230
aI200
aI240
aI200
aI250
aI200
aI260
aI200
aI270
aI200
aI280
aI200
aI290
aI200
aI300
aI200
aI310
aI200
aI320
aI200
aI330
aI200
aI340
aI200
aI350
aI200
aI360
aI200
aI370
aI200
aI380
aI200
aI390
aI200
aI400
aI200
aI410
aI200
aI420
aI200
aI430
aI200
aI440
aI200
aI450
aI200
aI460
aI200
aI470
aI200
aI480
aI200
aI490
aI200
aI500
aI200
aI510
aI200
aI520
aI200
aI530
aI200
aI540
aI200
aI550
aI200
aI560
aI200
aI570
aI200
aI580
aI200
aI590
aI200
aI600
aI200
aI610
aI200
aI620
aI200
aI630
aI200
aI640
aI200
aI650
aI200
aI660
aI200
aI670
aI200
aI680
aI200
aI690
aI200
aI700
aI200
aI710
aI200
aI720
aI200
aI730
aI200
aI740
aI200
aI750
aI200
aI760
aI200
aI770
aI200
aI780
aI200
aI790
aI200
aI800
aI200
aI810
aI200
aI820
aI200
aI830
aI200
aI840
aI200
aI850
aI200
aI860
aI200
aI870
aI200
aI880
aI200
aI890
aI200
aI900
aI200
aI910
aI200
aI920
aI200
aI930
aI200
aI940
aI200
aI950
aI200
aI960
aI200
aI970
aI200
aI980
aI200
aI990
aI200
aI1000
aI200
aI1010
aI200
aI1020
aI200
aI1030
aI200
aI1040
aI200
aI1050
aI200
aI1060
aI200
aI1070
aI200
aI1080
aI200
aI1090
aI200
aI1100
aI200
aI1110
aI200
aI1120
aI200
aI1130
aI200
aI1140
aI200
aI1150
aI200
aI1160
aI200
aI1170
aI200
aI1180
aI200
aI1190
aI200
aI1200
aI200
aI1210
aI200
aI1220
aI200
aI1230
aI200
aI1240
aI200
aI1250
aI200
aI1260
aI200
aI1270
aI200
aI1280
aI200
aI1290
aI200
aI1300
aI200
aI1310
aI200
aI1320
aI200
aI1330
aI200
aI1340
aI200
aI1350
aI200
aI1360
aI200
aI1370
aI200
aI1380
aI200
aI1390
aI200
aI1400
aI200
aI1410
aI200
aI1420
aI200
aI1430
aI200
aI1440
aI200
aI1450
aI200
aI1460
aI200
aI1470
aI200
aI1480
aI200
aI1490
aI200
aI1500
aI200
aI1510
aI200
aI1520
aI200
aI1530
aI200
aI1540
aI200
aI1550
aI200
aI1560
aI200
aI1570
aI200
aI1580
aI200
aI1590
aI200
aI1600
aI200
aI1610
aI200
aI1620
aI200
aI1630
aI200
aI1640
aI200
aI1650
aI200
aI1660
aI200
aI1670
aI200
aI1680
aI200
aI1690
aI200
aI1700
aI200
aI1710
aI200
aI1720
aI200
aI1730
aI200
aI1740
aI200
aI1750
aI200
aI1760
aI200
aI1770
aI200
aI1780
aI200
aI1790
aI200
aI1800
aI200
aI1810
aI200
aI1820
aI200
aI1830
aI200
aI1840
aI200
aI1850
aI200
aI1860
aI200
aI1870
aI200
aI1880
aI200
aI1890
aI200
aI1900
aI200
aI1910
aI200
aI1920
aI200
aI1930
aI200
aI1940
aI200
aI1950
aI200
aI1960
aI200
aI1970
aI200
aI1980
aI200
aI1990
aI200
aI-2000
aI300
aI-1990
aI300
aI-1980
aI300
aI-1970
aI300
aI-1960
aI300
aI-1950
aI300
aI-1940
aI300
aI-1930
aI300
aI-1920
aI300
aI-1910
aI300
aI-1900
aI300
aI-1890
aI300
aI-1880
aI300
aI-1870
aI300
aI-1860
aI300
aI-1850
aI300
aI-1840
aI300
aI-1830
aI300
aI-1820
aI300
aI-1810
aI300
aI-1800
aI300
aI-1790
aI300
aI-1780
aI300
aI-1770
aI300
aI-1760
aI300
aI-1750
aI300
aI-1740
aI300
aI-1730
aI300
aI-1720
aI300
aI-1710
aI300
aI-1700
aI300
aI-1690
aI300
aI-1680
aI300
aI-1670
aI300
aI-1660
aI300
aI-1650
aI300
aI-1640
aI300
aI-1630
aI300
aI-1620
aI300
aI-1610
aI300
aI-1600
aI300
aI-1590
aI300
aI-1580
aI300
aI-1570
aI300
aI-1560
aI300
aI-1550
aI300
aI-1540
aI300
aI-1530
aI300
aI-1520
aI300
aI-1510
aI300
aI-1500
aI300
aI-1490
aI300
aI-1480
aI300
aI-1470
aI300
aI-1460
aI300
aI-1450
aI300
aI-1440
aI300
aI-1430
aI300
aI-1420
aI300
aI-1410
aI300
aI-1400
aI300
aI-1390
aI300
aI-1380
aI300
aI-1370
aI300
aI-1360
aI300
aI-1350
aI300
aI-1340
aI300
aI-1330
aI300
aI-1320
aI300
aI-1310
aI300
aI-1300
aI300
aI-1290
aI300
aI-1280
aI300
aI-1270
aI300
aI-1260
aI300
aI-1250
aI300
aI-1240
aI300
aI-1230
aI300
aI-1220
aI300
aI-1210
aI300
aI-1200
aI300
aI-1190
aI300
aI-1180
aI300
aI-1170
aI300
aI-1160
aI300
aI-1150
aI300
aI-1140
aI300
aI-1130
aI300
aI-1120
aI300
aI-1110
aI300
aI-1100
aI300
aI-1090
aI300
aI-1080
aI300
aI-1070
aI300
aI-1060
aI300
aI-1050
aI300
aI-1040
aI300
aI-1030
aI300
aI-1020
aI300
aI-1010
aI300
aI-1000
aI300
aI-990
aI300
aI-980
aI300
aI-970
aI300
aI-960
aI300
aI-950
aI300
aI-940
aI300
aI-930
aI300
aI-920
aI300
aI-910
aI300
aI-900
aI300
aI-890
aI300
aI-880
aI300
aI-870
aI300
aI-860
aI300
aI-850
aI300
aI-840
aI300
aI-830
aI300
aI-820
aI300
aI-810
aI300
aI-800
aI300
aI-790
aI300
aI-780
aI300
aI-770
aI300
aI-760
aI300
aI-750
aI300
aI-740
aI300
aI-730
aI300
aI-720
aI300
aI-710
aI300
aI-700
aI300
aI-690
aI300
aI-680
aI300
aI-670
aI300
aI-660
aI300
aI-650
aI300
aI-640
aI300
aI-630
aI300
aI-620
aI300
aI-610
aI300
aI-600
aI300
aI-590
aI300
aI-580
aI300
aI-570
aI300
aI-560
aI300
aI-550
aI300
aI-540
aI300
aI-530
aI300
aI-520
aI300
aI-510
aI300
aI-500
aI300
aI-490
aI300
aI-480
aI300
aI-470
aI300
aI-460
aI300
aI-450
aI300
aI-440
aI300
aI-430
aI300
aI-420
aI300
aI-410
aI300
aI-400
aI300
aI-390
aI300
aI-380
aI300
aI-370
aI300
aI-360
aI300
aI-350
aI300
aI-340
aI300
aI-330
aI300
aI-320
aI300
aI-310
aI300
aI-300
aI300
aI-290
aI300
aI-280
aI300
aI-270
aI300
aI-260
aI300
aI-250
aI300
aI-240
aI300
aI-230
aI300
aI-220
aI300
aI-210
aI300
aI-200
aI300
aI-190
aI300
aI-180
aI300
aI-170
aI300
aI-160
aI300
aI-150
aI300
aI-140
aI300
aI-130
aI300
aI-120
aI300
aI-110
aI300
aI-100
aI300
aI-90
aI300
aI-80
aI300
aI-70
aI300
aI-60
aI300
aI-50
aI300
aI-40
aI300
aI-30
aI300
aI-20
aI300
aI-10
aI300
aI0
aI300
aI10
aI300
aI20
aI300
aI30
aI300
aI40
aI300
aI50
aI300
aI60
aI300
aI70
aI300
aI80
aI300
aI90
aI300
aI100
aI300
aI110
aI300
aI120
aI300
aI130
aI300
aI140
aI300
aI150
aI300
aI160
aI300
aI170
aI300
aI180
aI300
aI190
aI300
aI200
aI300
aI210
aI300
aI220
aI300
aI230
aI300
aI240
aI300
aI250
aI300
aI260
aI300
aI270
aI300
aI280
aI300
aI290
aI300
aI300
aI300
aI310
aI300
aI320
aI300
aI330
aI300
aI340
aI300
aI350
aI300
aI360
aI300
aI370
aI300
aI380
aI300
aI390
aI300
aI400
aI300
aI410
aI300
aI420
aI300
aI430
aI300
aI440
aI300
aI450
aI300
aI460
aI300
aI470
aI300
aI480
aI300
aI490
aI300
aI500
aI300
aI510
aI300
aI520
aI300
aI530
aI300
aI540
aI300
aI550
aI300
aI560
aI300
aI570
aI300
aI580
aI300
aI590
aI300
aI600
aI300
aI610
aI300
aI620
aI300
aI630
aI300
aI640
aI300
aI650
aI300
aI660
aI300
aI670
aI300
aI680
aI300
aI690
aI300
aI700
aI300
aI710
aI300
aI720
aI300
aI730
aI300
aI740
aI300
aI750
aI300
aI760
aI300
aI770
aI300
aI780
aI300
aI790
aI300
aI800
aI300
aI810
aI300
aI820
aI300
aI830
aI300
aI840
aI300
aI850
aI300
aI860
aI300
aI870
aI300
aI880
aI300
aI890
aI300
aI900
aI300
aI910
aI300
aI920
aI300
aI930
aI300
aI940
aI300
aI950
aI300
aI960
aI300
aI970
aI300
aI980
aI300
aI990
aI300
aI1000
aI300
aI1010
aI300
aI1020
aI300
aI1030
aI300
aI1040
aI300
aI1050
aI300
aI1060
aI300
aI1070
aI300
aI1080
aI300
aI1090
aI300
aI1100
aI300
aI1110
aI300
aI1120
aI300
aI1130
aI300
aI1140
aI300
aI1150
aI300
aI1160
aI300
aI1170
aI300
aI1180
aI300
aI1190
aI300
aI1200
aI300
aI1210
aI300
aI1220
aI300
aI1230
aI300
aI1240
aI300
aI1250
aI300
aI1260
aI300
aI1270
aI300
aI1280
aI300
aI1290
aI300
aI1300
aI300
aI1310
aI300
aI1320
aI300
aI1330
aI300
aI1340
aI300
aI1350
aI300
aI1360
aI300
aI1370
aI300
aI1380
aI300
aI1390
aI300
aI1400
aI300
aI1410
aI300
aI1420
aI300
aI1430
aI300
aI1440
aI300
aI1450
aI300
aI1460
aI300
aI1470
aI300
aI1480
aI300
aI1490
aI300
aI1500
aI300
aI1510
aI300
aI1520
aI300
aI1530
aI300
aI1540
aI300
aI1550
aI300
aI1560
aI300
aI1570
aI300
aI1580
aI300
aI1590
aI300
aI1600
aI300
aI1610
aI300
aI1620
aI300
aI1630
aI300
aI1640
aI300
aI1650
aI300
aI1660
aI300
aI1670
aI300
aI1680
aI300
aI1690
aI300
aI1700
aI300
aI1710
aI300
aI1720
aI300
aI1730
aI300
aI1740
aI300
aI1750
aI300
aI1760
aI300
aI1770
aI300
aI1780
aI300
aI1790
aI300
aI1800
aI300
aI1810
aI300
aI1820
aI300
aI1830
aI300
aI1840
aI300
aI1850
aI300
aI1860
aI300
aI1870
aI300
aI1880
aI300
aI1890
aI300
aI1900
aI300
aI1910
aI300
aI1920
aI300
aI1930
aI300
aI1940
aI300
aI1950
aI300
aI1960
aI300
aI1970
aI300
aI1980
aI300
aI1990
aI300
aI-2000
aI400
aI-1990
aI400
aI-1980
aI400
aI-1970
aI400
aI-1960
aI400
aI-1950
aI400
aI-1940
aI400
aI-1930
aI400
aI-1920
aI400
aI-1910
aI400
aI-1900
aI400
aI-1890
aI400
aI-1880
aI400
aI-1870
aI400
aI-1860
aI400
aI-1850
aI400
aI-1840
aI400
aI-1830
aI400
aI-1820
aI400
aI-1810
aI400
aI-1800
aI400
aI-1790
aI400
aI-1780
aI400
aI-1770
aI400
aI-1760
aI400
aI-1750
aI400
aI-1740
aI400
aI-1730
aI400
aI-1720
aI400
aI-1710
aI400
aI-1700
aI400
aI-1690
aI400
aI-1680
aI400
aI-1670
aI400
aI-1660
aI400
aI-1650
aI400
aI-1640
aI400
aI-1630
aI400
aI-1620
aI400
aI-1610
aI400
aI-1600
aI400
aI-1590
aI400
aI-1580
aI400
aI-1570
aI400
aI-1560
aI400
aI-1550
aI400
aI-1540
aI400
aI-1530
aI400
aI-1520
aI400
aI-1510
aI400
aI-1500
aI400
aI-1490
aI400
aI-1480
aI400
aI-1470
aI400
aI-1460
aI400
aI-1450
aI400
aI-1440
aI400
aI-1430
aI400
aI-1420
aI400
aI-1410
aI400
aI-1400
aI400
aI-1390
aI400
aI-1380
aI400
aI-1370
aI400
aI-1360
aI400
aI-1350
aI400
aI-1340
aI400
aI-1330
aI400
aI-1320
aI400
aI-1310
aI400
aI-1300
aI400
aI-1290
aI400
aI-1280
aI400
aI-1270
aI400
aI-1260
aI400
aI-1250
aI400
aI-1240
aI400
aI-1230
aI400
aI-1220
aI400
aI-1210
aI400
aI-1200
aI400
aI-1190
aI400
aI-1180
aI400
aI-1170
aI400
aI-1160
aI400
aI-1150
aI400
aI-1140
aI400
aI-1130
aI400
aI-1120
aI400
aI-1110
aI400
aI-1100
aI400
aI-1090
aI400
aI-1080
aI400
aI-1070
aI400
aI-1060
aI400
aI-1050
aI400
aI-1040
aI400
aI-1030
aI400
aI-1020
aI400
aI-1010
aI400
aI-1000
aI400
aI-990
aI400
aI-980
aI400
aI-970
aI400
aI-960
aI400
aI-950
aI400
aI-940
aI400
aI-930
aI400
aI-920
aI400
aI-910
aI400
aI-900
aI400
aI-890
aI400
aI-880
aI400
aI-870
aI400
aI-860
aI400
aI-850
aI400
aI-840
aI400
aI-830
aI400
aI-820
aI400
aI-810
aI400
aI-800
aI400
aI-790
aI400
aI-780
aI400
aI-770
aI400
aI-760
aI400
aI-750
aI400
aI-740
aI400
aI-730
aI400
aI-720
aI400
aI-710
aI400
aI-700
aI400
aI-690
aI400
aI-680
aI400
aI-670
aI400
aI-660
aI400
aI-650
aI400
aI-640
aI400
aI-630
aI400
aI-620
aI400
aI-610
aI400
aI-600
aI400
aI-590
aI400
aI-580
aI400
aI-570
aI400
aI-560
aI400
aI-550
aI400
aI-540
aI400
aI-530
aI400
aI-520
aI400
aI-510
aI400
aI-500
aI400
aI-490
aI400
aI-480
aI400
aI-470
aI400
aI-460
aI400
aI-450
aI400
aI-440
aI400
aI-430
aI400
aI-420
aI400
aI-410
aI400
aI-400
aI400
aI-390
aI400
aI-380
aI400
aI-370
aI400
aI-360
aI400
aI-350
aI400
aI-340
aI400
aI-330
aI400
aI-320
aI400
aI-310
aI400
aI-300
aI400
aI-290
aI400
aI-280
aI400
aI-270
aI400
aI-260
aI400
aI-250
aI400
aI-240
aI400
aI-230
aI400
aI-220
aI400
aI-210
aI400
aI-200
aI400
aI-190
aI400
aI-180
aI400
aI-170
aI400
aI-160
aI400
aI-150
aI400
aI-140
aI400
aI-130
aI400
aI-120
aI400
aI-110
aI400
aI-100
aI400
aI-90
aI400
aI-80
aI400
aI-70
aI400
aI-60
aI400
aI-50
aI400
aI-40
aI400
aI-30
aI400
aI-20
aI400
aI-10
aI400
aI0
aI400
aI10
aI400
aI20
aI400
aI30
aI400
aI40
aI400
aI50
aI400
aI60
aI400
aI70
aI400
aI80
aI400
aI90
aI400
aI100
aI400
aI110
aI400
aI120
aI400
aI130
aI400
aI140
aI400
aI150
aI400
aI160
aI400
aI170
aI400
aI180
aI400
aI190
aI400
aI200
aI400
aI210
aI400
aI220
aI400
aI230
aI400
aI240
aI400
aI250
aI400
aI260
aI400
aI270
aI400
aI280
aI400
aI290
aI400
aI300
aI400
aI310
aI400
aI320
aI400
aI330
aI400
aI340
aI400
aI350
aI400
aI360
aI400
aI370
aI400
aI380
aI400
aI390
aI400
aI400
aI400
aI410
aI400
aI420
aI400
aI430
aI400
aI440
aI400
aI450
aI400
aI460
aI400
aI470
aI400
aI480
aI400
aI490
aI400
aI500
aI400
aI510
aI400
aI520
aI400
aI530
aI400
aI540
aI400
aI550
aI400
aI560
aI400
aI570
aI400
aI580
aI400
aI590
aI400
aI600
aI400
aI610
aI400
aI620
aI400
aI630
aI400
aI640
aI400
aI650
aI400
aI660
aI400
aI670
aI400
aI680
aI400
aI690
aI400
aI700
aI400
aI710
aI400
aI720
aI400
aI730
aI400
aI740
aI400
aI750
aI400
aI760
aI400
aI770
aI400
aI780
aI400
aI790
aI400
aI800
aI400
aI810
aI400
aI820
aI400
aI830
aI400
aI840
aI400
aI850
aI400
aI860
aI400
aI870
aI400
aI880
aI400
aI890
aI400
aI900
aI400
aI910
aI400
aI920
aI400
aI930
aI400
aI940
aI400
aI950
aI400
aI960
aI400
aI970
aI400
aI980
aI400
aI990
aI400
aI1000
aI400
aI1010
aI400
aI1020
aI400
aI1030
aI400
aI1040
aI400
aI1050
aI400
aI1060
aI400
aI1070
aI400
aI1080
aI400
aI1090
aI400
aI1100
aI400
aI1110
aI400
aI1120
aI400
aI1130
aI400
aI1140
aI400
aI1150
aI400
aI1160
aI400
aI1170
aI400
aI1180
aI400
aI1190
aI400
aI1200
aI400
aI1210
aI400
aI1220
aI400
aI1230
aI400
aI1240
aI400
aI1250
aI400
aI1260
aI400
aI1270
aI400
aI1280
aI400
aI1290
aI400
aI1300
aI400
aI1310
aI400
aI1320
aI400
aI1330
aI400
aI1340
aI400
aI1350
aI400
aI1360
aI400
aI1370
aI400
aI1380
aI400
aI1390
aI400
aI1400
aI400
aI1410
aI400
aI1420
aI400
aI1430
aI400
aI1440
aI400
aI1450
aI400
aI1460
aI400
aI1470
aI400
aI1480
aI400
aI1490
aI400
aI1500
aI400
aI1510
aI400
aI1520
aI400
aI1530
aI400
aI1540
aI400
aI1550
aI400
aI1560
aI400
aI1570
aI400
aI1580
aI400
aI1590
aI400
aI1600
aI400
aI1610
aI400
aI1620
aI400
aI1630
aI400
aI1640
aI400
aI1650
aI400
aI1660
aI400
aI1670
aI400
aI1680
aI400
aI1690
aI400
aI1700
aI400
aI1710
aI400
aI1720
aI400
aI1730
aI400
aI1740
aI400
aI1750
aI400
aI1760
aI400
aI1770
aI400
aI1780
aI400
aI1790
aI400
aI1800
aI400
aI1810
aI400
aI1820
aI400
aI1830
aI400
aI1840
aI400
aI1850
aI400
aI1860
aI400
aI1870
aI400
aI1880
aI400
aI1890
aI400
aI1900
aI400
aI1910
aI400
aI1920
aI400
aI1930
aI400
aI1940
aI400
aI1950
aI400
aI1960
aI400
aI1970
aI400
aI1980
aI400
aI1990
aI400
aI-2000
aI500
aI-1990
aI500
aI-1980
aI500
aI-1970
aI500
aI-1960
aI500
aI-1950
aI500
aI-1940
aI500
aI-1930
aI500
aI-1920
aI500
aI-1910
aI500
aI-1900
aI500
aI-1890
aI500
aI-1880
aI500
aI-1870
aI500
aI-1860
aI500
aI-1850
aI500
aI-1840
aI500
aI-1830
aI500
aI-1820
aI500
aI-1810
aI500
aI-1800
aI500
aI-1790
aI500
aI-1780
aI500
aI-1770
aI500
aI-1760
aI500
aI-1750
aI500
aI-1740
aI500
aI-1730
aI500
aI-1720
aI500
aI-1710
aI500
aI-1700
aI500
aI-1690
aI500
aI-1680
aI500
aI-1670
aI500
aI-1660
aI500
aI-1650
aI500
aI-1640
aI500
aI-1630
aI500
aI-1620
aI500
aI-1610
aI500
aI-1600
aI500
aI-1590
aI500
aI-1580
aI500
aI-1570
aI500
aI-1560
aI500
aI-1550
aI500
aI-1540
aI500
aI-1530
aI500
aI-1520
aI500
aI-1510
aI500
aI-1500
aI500
aI-1490
aI500
aI-1480
aI500
aI-1470
aI500
aI-1460
aI500
aI-1450
aI500
aI-1440
aI500
aI-1430
aI500
aI-1420
aI500
aI-1410
aI500
aI-1400
aI500
aI-1390
aI500
aI-1380
aI500
aI-1370
aI500
aI-1360
aI500
aI-1350
aI500
aI-1340
aI500
aI-1330
aI500
aI-1320
aI500
aI-1310
aI500
aI-1300
aI500
aI-1290
aI500
aI-1280
aI500
aI-1270
aI500
aI-1260
aI500
aI-1250
aI500
aI-1240
aI500
aI-1230
aI500
aI-1220
aI500
aI-1210
aI500
aI-1200
aI500
aI-1190
aI500
aI-1180
aI500
aI-1170
aI500
aI-1160
aI500
aI-1150
aI500
aI-1140
aI500
aI-1130
aI500
aI-1120
aI500
aI-1110
aI500
aI-1100
aI500
aI-1090
aI500
aI-1080
aI500
aI-1070
aI500
aI-1060
aI500
aI-1050
aI500
aI-1040
aI500
aI-1030
aI500
aI-1020
aI500
aI-1010
aI500
aI-1000
aI500
aI-990
aI500
aI-980
aI500
aI-970
aI500
aI-960
aI500
aI-950
aI500
aI-940
aI500
aI-930
aI500
aI-920
aI500
aI-910
aI500
aI-900
aI500
aI-890
aI500
aI-880
aI500
aI-870
aI500
aI-860
aI500
aI-850
aI500
aI-840
aI500
aI-830
aI500
aI-820
aI500
aI-810
aI500
aI-800
aI500
aI-790
aI500
aI-780
aI500
aI-770
aI500
aI-760
aI500
aI-750
aI500
aI-740
aI500
aI-730
aI500
aI-720
aI500
aI-710
aI500
aI-700
aI500
aI-690
aI500
aI-680
aI500
aI-670
aI500
aI-660
aI500
aI-650
aI500
aI-640
aI500
aI-630
aI500
aI-620
aI500
aI-610
aI500
aI-600
aI500
aI-590
aI500
aI-580
aI500
aI-570
aI500
aI-560
aI500
aI-550
aI500
aI-540
aI500
aI-530
aI500
aI-520
aI500
aI-510
aI500
aI-500
aI500
aI-490
aI500
aI-480
aI500
aI-470
aI500
aI-460
aI500
aI-450
aI500
aI-440
aI500
aI-430
aI500
aI-420
aI500
aI-410
aI500
aI-400
aI500
aI-390
aI500
aI-380
aI500
aI-370
aI500
aI-360
aI500
aI-350
aI500
aI-340
aI500
aI-330
aI500
aI-320
aI500
aI-310
aI500
aI-300
aI500
aI-290
aI500
aI-280
aI500
aI-270
aI500
aI-260
aI500
aI-250
aI500
aI-240
aI500
aI-230
aI500
aI-220
aI500
aI-210
aI500
aI-200
aI500
aI-190
aI500
aI-180
aI500
aI-170
aI500
aI-160
aI500
aI-150
aI500
aI-140
aI500
aI-130
aI500
aI-120
aI500
aI-110
aI500
aI-100
aI500
aI-90
aI500
aI-80
aI500
aI-70
aI500
aI-60
aI500
aI-50
aI500
aI-40
aI500
aI-30
aI500
aI-20
aI500
aI-10
aI500
aI0
aI500
aI10
aI500
aI20
aI500
aI30
aI500
aI40
aI500
aI50
aI500
aI60
aI500
aI70
aI500
aI80
aI500
aI90
aI500
aI100
aI500
aI110
aI500
aI120
aI500
aI130
aI500
aI140
aI500
aI150
aI500
aI160
aI500
aI170
aI500
aI180
aI500
aI190
aI500
aI200
aI500
aI210
aI500
aI220
aI500
aI230
aI500
aI240
aI500
aI250
aI500
aI260
aI500
aI270
aI500
aI280
aI500
aI290
aI500
aI300
aI500
aI310
aI500
aI320
aI500
aI330
aI500
aI340
aI500
aI350
aI500
aI360
aI500
aI370
aI500
aI380
aI500
aI390
aI500
aI400
aI500
aI410
aI500
aI420
aI500
aI430
aI500
aI440
aI500
aI450
aI500
aI460
aI500
aI470
aI500
aI480
aI500
aI490
aI500
aI500
aI500
aI510
aI500
aI520
aI500
aI530
aI500
aI540
aI500
aI550
aI500
aI560
aI500
aI570
aI500
aI580
aI500
aI590
aI500
aI600
aI500
aI610
aI500
aI620
aI500
aI630
aI500
aI640
aI500
aI650
aI500
aI660
aI500
aI670
aI500
aI680
aI500
aI690
aI500
aI700
aI500
aI710
aI500
aI720
aI500
aI730
aI500
aI740
aI500
aI750
aI500
aI760
aI500
aI770
aI500
aI780
aI500
aI790
aI500
aI800
aI500
aI810
aI500
aI820
aI500
aI830
aI500
aI840
aI500
aI850
aI500
aI860
aI500
aI870
aI500
aI880
aI500
aI890
aI500
aI900
aI500
aI910
aI500
aI920
aI500
aI930
aI500
aI940
aI500
aI950
aI500
aI960
aI500
aI970
aI500
aI980
aI500
aI990
aI500
aI1000
aI500
aI1010
aI500
aI1020
aI500
aI1030
aI500
aI1040
aI500
aI1050
aI500
aI1060
aI500
aI1070
aI500
aI1080
aI500
aI1090
aI500
aI1100
aI500
aI1110
aI500
aI1120
aI500
aI1130
aI500
aI1140
aI500
aI1150
aI500
aI1160
aI500
aI1170
aI500
aI1180
aI500
aI1190
aI500
aI1200
aI500
aI1210
aI500
aI1220
aI500
aI1230
aI500
aI1240
aI500
aI1250
aI500
aI1260
aI500
aI1270
aI500
aI1280
aI500
aI1290
aI500
aI1300
aI500
aI1310
aI500
aI1320
aI500
aI1330
aI500
aI1340
aI500
aI1350
aI500
aI1360
aI500
aI1370
aI500
aI1380
aI500
aI1390
aI500
aI1400
aI500
aI1410
aI500
aI1420
aI500
aI1430
aI500
aI1440
aI500
aI1450
aI500
aI1460
aI500
aI1470
aI500
aI1480
aI500
aI1490
aI500
aI1500
aI500
aI1510
aI500
aI1520
aI500
aI1530
aI500
aI1540
aI500
aI1550
aI500
aI1560
aI500
aI1570
aI500
aI1580
aI500
aI1590
aI500
aI1600
aI500
aI1610
aI500
aI1620
aI500
aI1630
aI500
aI1640
aI500
aI1650
aI500
aI1660
aI500
aI1670
aI500
aI1680
aI500
aI1690
aI500
aI1700
aI500
aI1710
aI500
aI1720
aI500
aI1730
aI500
aI1740
aI500
aI1750
aI500
aI1760
aI500
aI1770
aI500
aI1780
aI500
aI1790
aI500
aI1800
aI500
aI1810
aI500
aI1820
aI500
aI1830
aI500
aI1840
aI500
aI1850
aI500
aI1860
aI500
aI1870
aI500
aI1880
aI500
aI1890
aI500
aI1900
aI500
aI1910
aI500
aI1920
aI500
aI1930
aI500
aI1940
aI500
aI1950
aI500
aI1960
aI500
aI1970
aI500
aI1980
aI500
aI1990
aI500
aI-2000
aI600
aI-1990
aI600
aI-1980
aI600
aI-1970
aI600
aI-1960
aI600
aI-1950
aI600
aI-1940
aI600
aI-1930
aI600
aI-1920
aI600
aI-1910
aI600
aI-1900
aI600
aI-1890
aI600
aI-1880
aI600
aI-1870
aI600
aI-1860
aI600
aI-1850
aI600
aI-1840
aI600
aI-1830
aI600
aI-1820
aI600
aI-1810
aI600
aI-1800
aI600
aI-1790
aI600
aI-1780
aI600
aI-1770
aI600
aI-1760
aI600
aI-1750
aI600
aI-1740
aI600
aI-1730
aI600
aI-1720
aI600
aI-1710
aI600
aI-1700
aI600
aI-1690
aI600
aI-1680
aI600
aI-1670
aI600
aI-1660
aI600
aI-1650
aI600
aI-1640
aI600
aI-1630
aI600
aI-1620
aI600
aI-1610
aI600
aI-1600
aI600
aI-1590
aI600
aI-1580
aI600
aI-1570
aI600
aI-1560
aI600
aI-1550
aI600
aI-1540
aI600
aI-1530
aI600
aI-1520
aI600
aI-1510
aI600
aI-1500
aI600
aI-1490
aI600
aI-1480
aI600
aI-1470
aI600
aI-1460
aI600
aI-1450
aI600
aI-1440
aI600
aI-1430
aI600
aI-1420
aI600
aI-1410
aI600
aI-1400
aI600
aI-1390
aI600
aI-1380
aI600
aI-1370
aI600
aI-1360
aI600
aI-1350
aI600
aI-1340
aI600
aI-1330
aI600
aI-1320
aI600
aI-1310
aI600
aI-1300
aI600
aI-1290
aI600
aI-1280
aI600
aI-1270
aI600
aI-1260
aI600
aI-1250
aI600
aI-1240
aI600
aI-1230
aI600
aI-1220
aI600
aI-1210
aI600
aI-1200
aI600
aI-1190
aI600
aI-1180
aI600
aI-1170
aI600
aI-1160
aI600
aI-1150
aI600
aI-1140
aI600
aI-1130
aI600
aI-1120
aI600
aI-1110
aI600
aI-1100
aI600
aI-1090
aI600
aI-1080
aI600
aI-1070
aI600
aI-1060
aI600
aI-1050
aI600
aI-1040
aI600
aI-1030
aI600
aI-1020
aI600
aI-1010
aI600
aI-1000
aI600
aI-990
aI600
aI-980
aI600
aI-970
aI600
aI-960
aI600
aI-950
aI600
aI-940
aI600
aI-930
aI600
aI-920
aI600
aI-910
aI600
aI-900
aI600
aI-890
aI600
aI-880
aI600
aI-870
aI600
aI-860
aI600
aI-850
aI600
aI-840
aI600
aI-830
aI600
aI-820
aI600
aI-810
aI600
aI-800
aI600
aI-790
aI600
aI-780
aI600
aI-770
aI600
aI-760
aI600
aI-750
aI600
aI-740
aI600
aI-730
aI600
aI-720
aI600
aI-710
aI600
aI-700
aI600
aI-690
aI600
aI-680
aI600
aI-670
aI600
aI-660
aI600
aI-650
aI600
aI-640
aI600
aI-630
aI600
aI-620
aI600
aI-610
aI600
aI-600
aI600
aI-590
aI600
aI-580
aI600
aI-570
aI600
aI-560
aI600
aI-550
aI600
aI-540
aI600
aI-530
aI600
aI-520
aI600
aI-510
aI600
aI-500
aI600
aI-490
aI600
aI-480
aI600
aI-470
aI600
aI-460
aI600
aI-450
aI600
aI-440
aI600
aI-430
aI600
aI-420
aI600
aI-410
aI600
aI-400
aI600
aI-390
aI600
aI-380
aI600
aI-370
aI600
aI-360
aI600
aI-350
aI600
aI-340
aI600
aI-330
aI600
aI-320
aI600
aI-310
aI600
aI-300
aI600
aI-290
aI600
aI-280
aI600
aI-270
aI600
aI-260
aI600
aI-250
aI600
aI-240
aI600
aI-230
aI600
aI-220
aI600
aI-210
aI600
aI-200
aI600
aI-190
aI600
aI-180
aI600
aI-170
aI600
aI-160
aI600
aI-150
aI600
aI-140
aI600
aI-130
aI600
aI-120
aI600
aI-110
aI600
aI-100
aI600
aI-90
aI600
aI-80
aI600
aI-70
aI600
aI-60
aI600
aI-50
aI600
aI-40
aI600
aI-30
aI600
aI-20
aI600
aI-10
aI600
aI0
aI600
aI10
aI600
aI20
aI600
aI30
aI600
aI40
aI600
aI50
aI600
aI60
aI600
aI70
aI600
aI80
aI600
aI90
aI600
aI100
aI600
aI110
aI600
aI120
aI600
aI130
aI600
aI140
aI600
aI150
aI600
aI160
aI600
aI170
aI600
aI180
aI600
aI190
aI600
aI200
aI600
aI210
aI600
aI220
aI600
aI230
aI600
aI240
aI600
aI250
aI600
aI260
aI600
aI270
aI600
aI280
aI600
aI290
aI600
aI300
aI600
aI310
aI600
aI320
aI600
aI330
aI600
aI340
aI600
aI350
aI600
aI360
aI600
aI370
aI600
aI380
aI600
aI390
aI600
aI400
aI600
aI410
aI600
aI420
aI600
aI430
aI600
aI440
aI600
aI450
aI600
aI460
aI600
aI470
aI600
aI480
aI600
aI490
aI600
aI500
aI600
aI510
aI600
aI520
aI600
aI530
aI600
aI540
aI600
aI550
aI600
aI560
aI600
aI570
aI600
aI580
aI600
aI590
aI600
aI600
aI600
aI610
aI600
aI620
aI600
aI630
aI600
aI640
aI600
aI650
aI600
aI660
aI600
aI670
aI600
aI680
aI600
aI690
aI600
aI700
aI600
aI710
aI600
aI720
aI600
aI730
aI600
aI740
aI600
aI750
aI600
aI760
aI600
aI770
aI600
aI780
aI600
aI790
aI600
aI800
aI600
aI810
aI600
aI820
aI600
aI830
aI600
aI840
aI600
aI850
aI600
aI860
aI600
aI870
aI600
aI880
aI600
aI890
aI600
aI900
aI600
aI910
aI600
aI920
aI600
aI930
aI600
aI940
aI600
aI950
aI600
aI960
aI600
aI970
aI600
aI980
aI600
aI990
aI600
aI1000
aI600
aI1010
aI600
aI1020
aI600
aI1030
aI600
aI1040
aI600
aI1050
aI600
aI1060
aI600
aI1070
aI600
aI1080
aI600
aI1090
aI600
aI1100
aI600
aI1110
aI600
aI1120
aI600
aI1130
aI600
aI1140
aI600
aI1150
aI600
aI1160
aI600
aI1170
aI600
aI1180
aI600
aI1190
aI600
aI1200
aI600
aI1210
aI600
aI1220
aI600
aI1230
aI600
aI1240
aI600
aI1250
aI600
aI1260
aI600
aI1270
aI600
aI1280
aI600
aI1290
aI600
aI1300
aI600
aI1310
aI600
aI1320
aI600
aI1330
aI600
aI1340
aI600
aI1350
aI600
aI1360
aI600
aI1370
aI600
aI1380
aI600
aI1390
aI600
aI1400
aI600
aI1410
aI600
aI1420
aI600
aI1430
aI600
aI1440
aI600
aI1450
aI600
aI1460
aI600
aI1470
aI600
aI1480
aI600
aI1490
aI600
aI1500
aI600
aI1510
aI600
aI1520
aI600
aI1530
aI600
aI1540
aI600
aI1550
aI600
aI1560
aI600
aI1570
aI600
aI1580
aI600
aI1590
aI600
aI1600
aI600
aI1610
aI600
aI1620
aI600
aI1630
aI600
aI1640
aI600
aI1650
aI600
aI1660
aI600
aI1670
aI600
aI1680
aI600
aI1690
aI600
aI1700
aI600
aI1710
aI600
aI1720
aI600
aI1730
aI600
aI1740
aI600
aI1750
aI600
aI1760
aI600
aI1770
aI600
aI1780
aI600
aI1790
aI600
aI1800
aI600
aI1810
aI600
aI1820
aI600
aI1830
aI600
aI1840
aI600
aI1850
aI600
aI1860
aI600
aI1870
aI600
aI1880
aI600
aI1890
aI600
aI1900
aI600
aI1910
aI600
aI1920
aI600
aI1930
aI600
aI1940
aI600
aI1950
aI600
aI1960
aI600
aI1970
aI600
aI1980
aI600
aI1990
aI600
atp12
Rp13
sS'point_count'
p14
I11200
sbsS'goal'
p15
ccopy_reg
_reconstructor
p16
(cgravithaum.game.molecule
molecule
p17
c__builtin__
object
p18
Ntp19
Rp20
(dp21
S'parent'
p22
NsS'weight'
p23
I32
sS'links'
p24
(lp25
(igravithaum.game.molecule
link
p26
(dp27
S'node'
p28
g16
(g17
g18
Ntp29
Rp30
(dp31
g22
g20
sg23
I30
sg24
(lp32
(igravithaum.game.molecule
link
p33
(dp34
g28
g16
(g17
g18
Ntp35
Rp36
(dp37
g22
g30
sg23
I24
sg24
(lp38
(igravithaum.game.molecule
link
p39
(dp40
g28
g16
(g17
g18
Ntp41
Rp42
(dp43
g22
g36
sg23
I7
sg24
(lp44
(igravithaum.game.molecule
link
p45
(dp46
g28
g16
(g17
g18
Ntp47
Rp48
(dp49
g22
g42
sg23
I3
sg24
(lp50
sS'empty_load'
p51
I3
sS'pos'
p52
(igravithaum.math.vector
vector
p53
(dp54
S'y'
p55
F89.9460910626452
sS'x'
p56
F71.73255717390055
sbsS'bounding_box'
p57
(igravithaum.math.rectangle
rectangle
p58
(dp59
S'tl'
p60
(igravithaum.math.vector
vector
p61
(dp62
g55
F99.8460910626452
sg56
F61.83255717390055
sbsS'br'
p63
(igravithaum.math.vector
vector
p64
(dp65
g55
F80.04609106264519
sg56
F81.63255717390055
sbsbsS'atom'
p66
g16
(cgravithaum.game.atom
atom
p67
g18
Ntp68
Rp69
(dp70
S'load'
p71
I3
sS'radius'
p72
I15
sS'speed'
p73
(igravithaum.math.vector
vector
p74
(dp75
g55
I0
sg56
I0
sbsg52
g53
sg23
I3
sbsg73
(igravithaum.math.vector
vector
p76
(dp77
g55
I0
sg56
I0
sbsbsS'angle'
p78
I0
sbasg51
I4
sg52
(igravithaum.math.vector
vector
p79
(dp80
g55
F114.3540559893366
sg56
F66.32411487159177
sbsg57
(igravithaum.math.rectangle
rectangle
p81
(dp82
g60
(igravithaum.math.vector
vector
p83
(dp84
g55
F145.86002968435514
sg56
F49.06778314486019
sbsg63
(igravithaum.math.vector
vector
p85
(dp86
g55
F80.04609106264519
sg56
F81.63255717390055
sbsbsg66
g16
(g67
g18
Ntp87
Rp88
(dp89
g71
I4
sg72
I20
sg73
(igravithaum.math.vector
vector
p90
(dp91
g55
I0
sg56
I0
sbsg52
(igravithaum.math.vector
vector
p92
(dp93
g55
F132.66002968435515
sg56
F62.267783144860196
sbsg23
I4
sbsg73
(igravithaum.math.vector
vector
p94
(dp95
g55
F0.0
sg56
F0.0
sbsbsg78
I0
sba(igravithaum.game.molecule
link
p96
(dp97
g28
g16
(g17
g18
Ntp98
Rp99
(dp100
g22
g36
sg23
I10
sg24
(lp101
sg51
I10
sg52
(igravithaum.math.vector
vector
p102
(dp103
g55
F149.75830439743908
sg56
F-103.11959371525407
sbsg57
(igravithaum.math.rectangle
rectangle
p104
(dp105
g60
(igravithaum.math.vector
vector
p106
(dp107
g55
F182.75830439743908
sg56
F-136.11959371525407
sbsg63
(igravithaum.math.vector
vector
p108
(dp109
g55
F116.75830439743908
sg56
F-70.11959371525407
sbsbsg66
g16
(g67
g18
Ntp110
Rp111
(dp112
g71
I10
sg72
I50
sg73
(igravithaum.math.vector
vector
p113
(dp114
g55
I0
sg56
I0
sbsg52
g102
sg23
I10
sbsg73
(igravithaum.math.vector
vector
p115
(dp116
g55
F0.0
sg56
F0.0
sbsbsg78
I0
sbasg51
I7
sg52
(igravithaum.math.vector
vector
p117
(dp118
g55
F128.6323768410382
sg56
F-24.65163605321474
sbsg57
(igravithaum.math.rectangle
rectangle
p119
(dp120
g60
(igravithaum.math.vector
vector
p121
(dp122
g55
F182.75830439743908
sg56
F-136.11959371525407
sbsg63
(igravithaum.math.vector
vector
p123
(dp124
g55
F80.04609106264519
sg56
F81.63255717390055
sbsbsg66
g16
(g67
g18
Ntp125
Rp126
(dp127
g71
I7
sg72
I35
sg73
(igravithaum.math.vector
vector
p128
(dp129
g55
I0
sg56
I0
sbsg52
(igravithaum.math.vector
vector
p130
(dp131
g55
F112.73080118359559
sg56
F-3.5303046036793617
sbsg23
I7
sbsg73
(igravithaum.math.vector
vector
p132
(dp133
g55
I0
sg56
I0
sbsbsg78
I0
sbasg51
I6
sg52
(igravithaum.math.vector
vector
p134
(dp135
g55
F113.51768209807571
sg56
F-31.45610873425237
sbsg57
(igravithaum.math.rectangle
rectangle
p136
(dp137
g60
(igravithaum.math.vector
vector
p138
(dp139
g55
F182.75830439743908
sg56
F-136.11959371525407
sbsg63
(igravithaum.math.vector
vector
p140
(dp141
g55
F33.25890312622576
sg56
F81.63255717390055
sbsbsg66
g16
(g67
g18
Ntp142
Rp143
(dp144
g71
I6
sg72
I30
sg73
(igravithaum.math.vector
vector
p145
(dp146
g55
I0
sg56
I0
sbsg52
(igravithaum.math.vector
vector
p147
(dp148
g55
F53.058903126225765
sg56
F-58.673999458402896
sbsg23
I6
sbsg73
(igravithaum.math.vector
vector
p149
(dp150
g55
I0
sg56
I0
sbsbsg78
I0
sbasg51
I2
sg52
(igravithaum.math.vector
vector
p151
(dp152
g55
F108.22305890053973
sg56
F-30.424550180549097
sbsg57
(igravithaum.math.rectangle
rectangle
p153
(dp154
g60
(igravithaum.math.vector
vector
p155
(dp156
g55
F182.75830439743908
sg56
F-136.11959371525407
sbsg63
(igravithaum.math.vector
vector
p157
(dp158
g55
F22.2037109375
sg56
F81.63255717390055
sbsbsg66
g16
(g67
g18
Ntp159
Rp160
(dp161
g71
I2
sg72
I10
sg73
(igravithaum.math.vector
vector
p162
(dp163
g55
I0
sg56
I0
sbsg52
(igravithaum.math.vector
vector
p164
(dp165
g55
F28.8037109375
sg56
F-14.951171875
sbsg23
I2
sbsg73
(igravithaum.math.vector
vector
p166
(dp167
g55
F0.0
sg56
F0.0
sbsbsS'molecules'
p168
(lp169
g16
(g17
g18
Ntp170
Rp171
(dp172
g22
Nsg23
I1
sg24
(lp173
sg51
I10
sg52
(igravithaum.math.vector
vector
p174
(dp175
g55
F40.0537109375
sg56
F-126.201171875
sbsg57
(igravithaum.math.rectangle
rectangle
p176
(dp177
g60
(igravithaum.math.vector
vector
p178
(dp179
g55
F73.0537109375
sg56
F-159.201171875
sbsg63
(igravithaum.math.vector
vector
p180
(dp181
g55
F7.0537109375
sg56
F-93.201171875
sbsbsg66
g16
(g67
g18
Ntp182
Rp183
(dp184
g71
I10
sg72
I50
sg73
(igravithaum.math.vector
vector
p185
(dp186
g55
I0
sg56
I0
sbsg52
(igravithaum.math.vector
vector
p187
(dp188
g55
F40.0537109375
sg56
F-126.201171875
sbsg23
I10
sbsg73
(igravithaum.math.vector
vector
p189
(dp190
g55
I0
sg56
I0
sbsbag16
(g17
g18
Ntp191
Rp192
(dp193
g22
Nsg23
I1
sg24
(lp194
sg51
I10
sg52
(igravithaum.math.vector
vector
p195
(dp196
g55
F-116.1962890625
sg56
F-68.701171875
sbsg57
(igravithaum.math.rectangle
rectangle
p197
(dp198
g60
(igravithaum.math.vector
vector
p199
(dp200
g55
F-83.1962890625
sg56
F-101.701171875
sbsg63
(igravithaum.math.vector
vector
p201
(dp202
g55
F-149.1962890625
sg56
F-35.701171875
sbsbsg66
g16
(g67
g18
Ntp203
Rp204
(dp205
g71
I10
sg72
I50
sg73
(igravithaum.math.vector
vector
p206
(dp207
g55
I0
sg56
I0
sbsg52
(igravithaum.math.vector
vector
p208
(dp209
g55
F-116.1962890625
sg56
F-68.701171875
sbsg23
I10
sbsg73
(igravithaum.math.vector
vector
p210
(dp211
g55
I0
sg56
I0
sbsbag16
(g17
g18
Ntp212
Rp213
(dp214
g22
Nsg23
I1
sg24
(lp215
sg51
I10
sg52
(igravithaum.math.vector
vector
p216
(dp217
g55
F-78.6962890625
sg56
F-353.701171875
sbsg57
(igravithaum.math.rectangle
rectangle
p218
(dp219
g60
(igravithaum.math.vector
vector
p220
(dp221
g55
F-45.6962890625
sg56
F-386.701171875
sbsg63
(igravithaum.math.vector
vector
p222
(dp223
g55
F-111.6962890625
sg56
F-320.701171875
sbsbsg66
g16
(g67
g18
Ntp224
Rp225
(dp226
g71
I10
sg72
I50
sg73
(igravithaum.math.vector
vector
p227
(dp228
g55
I0
sg56
I0
sbsg52
(igravithaum.math.vector
vector
p229
(dp230
g55
F-78.6962890625
sg56
F-353.701171875
sbsg23
I10
sbsg73
(igravithaum.math.vector
vector
p231
(dp232
g55
I0
sg56
I0
sbsbag16
(g17
g18
Ntp233
Rp234
(dp235
g22
Nsg23
I1
sg24
(lp236
sg51
I10
sg52
(igravithaum.math.vector
vector
p237
(dp238
g55
F16.3037109375
sg56
F152.548828125
sbsg57
(igravithaum.math.rectangle
rectangle
p239
(dp240
g60
(igravithaum.math.vector
vector
p241
(dp242
g55
F49.3037109375
sg56
F119.548828125
sbsg63
(igravithaum.math.vector
vector
p243
(dp244
g55
F-16.6962890625
sg56
F185.548828125
sbsbsg66
g16
(g67
g18
Ntp245
Rp246
(dp247
g71
I10
sg72
I50
sg73
(igravithaum.math.vector
vector
p248
(dp249
g55
I0
sg56
I0
sbsg52
(igravithaum.math.vector
vector
p250
(dp251
g55
F16.3037109375
sg56
F152.548828125
sbsg23
I10
sbsg73
(igravithaum.math.vector
vector
p252
(dp253
g55
I0
sg56
I0
sbsbag16
(g17
g18
Ntp254
Rp255
(dp256
g22
Nsg23
I1
sg24
(lp257
sg51
I3
sg52
(igravithaum.math.vector
vector
p258
(dp259
g55
F-74.9462890625
sg56
F-226.201171875
sbsg57
(igravithaum.math.rectangle
rectangle
p260
(dp261
g60
(igravithaum.math.vector
vector
p262
(dp263
g55
F-65.0462890625
sg56
F-236.101171875
sbsg63
(igravithaum.math.vector
vector
p264
(dp265
g55
F-84.8462890625
sg56
F-216.301171875
sbsbsg66
g16
(g67
g18
Ntp266
Rp267
(dp268
g71
I3
sg72
I15
sg73
(igravithaum.math.vector
vector
p269
(dp270
g55
I0
sg56
I0
sbsg52
(igravithaum.math.vector
vector
p271
(dp272
g55
F-74.9462890625
sg56
F-226.201171875
sbsg23
I3
sbsg73
(igravithaum.math.vector
vector
p273
(dp274
g55
I0
sg56
I0
sbsbag16
(g17
g18
Ntp275
Rp276
(dp277
g22
Nsg23
I1
sg24
(lp278
sg51
I3
sg52
(igravithaum.math.vector
vector
p279
(dp280
g55
F-36.1962890625
sg56
F38.798828125
sbsg57
(igravithaum.math.rectangle
rectangle
p281
(dp282
g60
(igravithaum.math.vector
vector
p283
(dp284
g55
F-26.2962890625
sg56
F28.898828125
sbsg63
(igravithaum.math.vector
vector
p285
(dp286
g55
F-46.0962890625
sg56
F48.698828125
sbsbsg66
g16
(g67
g18
Ntp287
Rp288
(dp289
g71
I3
sg72
I15
sg73
(igravithaum.math.vector
vector
p290
(dp291
g55
I0
sg56
I0
sbsg52
(igravithaum.math.vector
vector
p292
(dp293
g55
F-36.1962890625
sg56
F38.798828125
sbsg23
I3
sbsg73
(igravithaum.math.vector
vector
p294
(dp295
g55
I0
sg56
I0
sbsbag16
(g17
g18
Ntp296
Rp297
(dp298
g22
Nsg23
I1
sg24
(lp299
sg51
I7
sg52
(igravithaum.math.vector
vector
p300
(dp301
g55
F171.3037109375
sg56
F-152.451171875
sbsg57
(igravithaum.math.rectangle
rectangle
p302
(dp303
g60
(igravithaum.math.vector
vector
p304
(dp305
g55
F194.4037109375
sg56
F-175.551171875
sbsg63
(igravithaum.math.vector
vector
p306
(dp307
g55
F148.2037109375
sg56
F-129.351171875
sbsbsg66
g16
(g67
g18
Ntp308
Rp309
(dp310
g71
I7
sg72
I35
sg73
(igravithaum.math.vector
vector
p311
(dp312
g55
I0
sg56
I0
sbsg52
(igravithaum.math.vector
vector
p313
(dp314
g55
F171.3037109375
sg56
F-152.451171875
sbsg23
I7
sbsg73
(igravithaum.math.vector
vector
p315
(dp316
g55
I0
sg56
I0
sbsbag16
(g17
g18
Ntp317
Rp318
(dp319
g22
Nsg23
I1
sg24
(lp320
sg51
I2
sg52
(igravithaum.math.vector
vector
p321
(dp322
g55
F-249.9462890625
sg56
F28.798828125
sbsg57
(igravithaum.math.rectangle
rectangle
p323
(dp324
g60
(igravithaum.math.vector
vector
p325
(dp326
g55
F-243.3462890625
sg56
F22.198828125
sbsg63
(igravithaum.math.vector
vector
p327
(dp328
g55
F-256.5462890625
sg56
F35.398828125
sbsbsg66
g16
(g67
g18
Ntp329
Rp330
(dp331
g71
I2
sg72
I10
sg73
(igravithaum.math.vector
vector
p332
(dp333
g55
I0
sg56
I0
sbsg52
(igravithaum.math.vector
vector
p334
(dp335
g55
F-249.9462890625
sg56
F28.798828125
sbsg23
I2
sbsg73
(igravithaum.math.vector
vector
p336
(dp337
g55
I0
sg56
I0
sbsbag16
(g17
g18
Ntp338
Rp339
(dp340
g22
Nsg23
I1
sg24
(lp341
sg51
I2
sg52
(igravithaum.math.vector
vector
p342
(dp343
g55
F-222.4462890625
sg56
F-168.701171875
sbsg57
(igravithaum.math.rectangle
rectangle
p344
(dp345
g60
(igravithaum.math.vector
vector
p346
(dp347
g55
F-215.8462890625
sg56
F-175.301171875
sbsg63
(igravithaum.math.vector
vector
p348
(dp349
g55
F-229.0462890625
sg56
F-162.101171875
sbsbsg66
g16
(g67
g18
Ntp350
Rp351
(dp352
g71
I2
sg72
I10
sg73
(igravithaum.math.vector
vector
p353
(dp354
g55
I0
sg56
I0
sbsg52
(igravithaum.math.vector
vector
p355
(dp356
g55
F-222.4462890625
sg56
F-168.701171875
sbsg23
I2
sbsg73
(igravithaum.math.vector
vector
p357
(dp358
g55
I0
sg56
I0
sbsbag16
(g17
g18
Ntp359
Rp360
(dp361
g22
Nsg23
I1
sg24
(lp362
sg51
I4
sg52
(igravithaum.math.vector
vector
p363
(dp364
g55
F91.3037109375
sg56
F-282.451171875
sbsg57
(igravithaum.math.rectangle
rectangle
p365
(dp366
g60
(igravithaum.math.vector
vector
p367
(dp368
g55
F104.5037109375
sg56
F-295.651171875
sbsg63
(igravithaum.math.vector
vector
p369
(dp370
g55
F78.1037109375
sg56
F-269.251171875
sbsbsg66
g16
(g67
g18
Ntp371
Rp372
(dp373
g71
I4
sg72
I20
sg73
(igravithaum.math.vector
vector
p374
(dp375
g55
I0
sg56
I0
sbsg52
(igravithaum.math.vector
vector
p376
(dp377
g55
F91.3037109375
sg56
F-282.451171875
sbsg23
I4
sbsg73
(igravithaum.math.vector
vector
p378
(dp379
g55
I0
sg56
I0
sbsbag16
(g17
g18
Ntp380
Rp381
(dp382
g22
Nsg23
I1
sg24
(lp383
sg51
I5
sg52
(igravithaum.math.vector
vector
p384
(dp385
g55
F-39.9462890625
sg56
F-27.451171875
sbsg57
(igravithaum.math.rectangle
rectangle
p386
(dp387
g60
(igravithaum.math.vector
vector
p388
(dp389
g55
F-23.4462890625
sg56
F-43.951171875
sbsg63
(igravithaum.math.vector
vector
p390
(dp391
g55
F-56.4462890625
sg56
F-10.951171875
sbsbsg66
g16
(g67
g18
Ntp392
Rp393
(dp394
g71
I5
sg72
I25
sg73
(igravithaum.math.vector
vector
p395
(dp396
g55
I0
sg56
I0
sbsg52
(igravithaum.math.vector
vector
p397
(dp398
g55
F-39.9462890625
sg56
F-27.451171875
sbsg23
I5
sbsg73
(igravithaum.math.vector
vector
p399
(dp400
g55
I0
sg56
I0
sbsbag16
(g17
g18
Ntp401
Rp402
(dp403
g22
Nsg23
I1
sg24
(lp404
sg51
I6
sg52
(igravithaum.math.vector
vector
p405
(dp406
g55
F181.3037109375
sg56
F180.048828125
sbsg57
(igravithaum.math.rectangle
rectangle
p407
(dp408
g60
(igravithaum.math.vector
vector
p409
(dp410
g55
F201.1037109375
sg56
F160.248828125
sbsg63
(igravithaum.math.vector
vector
p411
(dp412
g55
F161.5037109375
sg56
F199.848828125
sbsbsg66
g16
(g67
g18
Ntp413
Rp414
(dp415
g71
I6
sg72
I30
sg73
(igravithaum.math.vector
vector
p416
(dp417
g55
I0
sg56
I0
sbsg52
(igravithaum.math.vector
vector
p418
(dp419
g55
F181.3037109375
sg56
F180.048828125
sbsg23
I6
sbsg73
(igravithaum.math.vector
vector
p420
(dp421
g55
I0
sg56
I0
sbsbag16
(g17
g18
Ntp422
Rp423
(dp424
g22
Nsg23
I1
sg24
(lp425
sg51
I4
sg52
(igravithaum.math.vector
vector
p426
(dp427
g55
F122.5537109375
sg56
F21.298828125
sbsg57
(igravithaum.math.rectangle
rectangle
p428
(dp429
g60
(igravithaum.math.vector
vector
p430
(dp431
g55
F135.7537109375
sg56
F8.098828124999999
sbsg63
(igravithaum.math.vector
vector
p432
(dp433
g55
F109.3537109375
sg56
F34.498828125
sbsbsg66
g16
(g67
g18
Ntp434
Rp435
(dp436
g71
I4
sg72
I20
sg73
(igravithaum.math.vector
vector
p437
(dp438
g55
I0
sg56
I0
sbsg52
(igravithaum.math.vector
vector
p439
(dp440
g55
F122.5537109375
sg56
F21.298828125
sbsg23
I4
sbsg73
(igravithaum.math.vector
vector
p441
(dp442
g55
I0
sg56
I0
sbsbasb.